(dp0
I1
(lp1
S'#8dd3c7'
p2
ag2
ag2
ag2
ag2
ag2
ag2
ag2
ag2
ag2
ag2
ag2
ag2
ag2
ag2
ag2
ag2
ag2
ag2
ag2
ag2
ag2
ag2
ag2
ag2
ag2
ag2
ag2
ag2
ag2
ag2
ag2
ag2
ag2
ag2
ag2
ag2
ag2
ag2
ag2
ag2
ag2
ag2
ag2
ag2
ag2
ag2
ag2
ag2
ag2
ag2
ag2
ag2
ag2
ag2
ag2
ag2
ag2
ag2
ag2
ag2
ag2
ag2
ag2
ag2
ag2
ag2
ag2
ag2
ag2
ag2
ag2
ag2
ag2
ag2
ag2
ag2
ag2
ag2
ag2
ag2
ag2
ag2
ag2
ag2
ag2
ag2
ag2
ag2
ag2
ag2
ag2
ag2
ag2
ag2
ag2
ag2
ag2
ag2
ag2
ag2
ag2
ag2
ag2
ag2
ag2
ag2
ag2
ag2
ag2
ag2
ag2
ag2
ag2
ag2
ag2
ag2
ag2
ag2
ag2
ag2
ag2
ag2
ag2
ag2
ag2
ag2
ag2
ag2
ag2
ag2
ag2
ag2
ag2
ag2
ag2
ag2
ag2
ag2
ag2
ag2
ag2
ag2
ag2
ag2
ag2
ag2
ag2
ag2
ag2
ag2
ag2
ag2
ag2
ag2
ag2
ag2
ag2
ag2
ag2
ag2
ag2
ag2
ag2
ag2
ag2
ag2
ag2
ag2
ag2
ag2
ag2
ag2
ag2
ag2
ag2
ag2
ag2
ag2
ag2
ag2
ag2
ag2
ag2
ag2
ag2
ag2
ag2
ag2
ag2
ag2
ag2
ag2
ag2
ag2
ag2
ag2
ag2
ag2
ag2
ag2
ag2
ag2
ag2
ag2
ag2
ag2
ag2
ag2
ag2
ag2
ag2
ag2
ag2
ag2
ag2
ag2
ag2
ag2
ag2
ag2
ag2
ag2
ag2
ag2
ag2
ag2
ag2
ag2
ag2
ag2
ag2
ag2
ag2
ag2
ag2
ag2
ag2
ag2
ag2
ag2
ag2
ag2
ag2
ag2
ag2
ag2
ag2
ag2
ag2
ag2
ag2
ag2
ag2
ag2
ag2
ag2
ag2
ag2
ag2
ag2
ag2
ag2
ag2
ag2
ag2
ag2
ag2
ag2
ag2
ag2
ag2
ag2
ag2
ag2
ag2
ag2
ag2
ag2
ag2
ag2
ag2
ag2
ag2
ag2
ag2
ag2
ag2
ag2
ag2
ag2
ag2
ag2
ag2
ag2
ag2
ag2
ag2
ag2
ag2
ag2
ag2
ag2
ag2
ag2
ag2
ag2
ag2
ag2
ag2
ag2
ag2
ag2
ag2
ag2
ag2
ag2
ag2
ag2
ag2
ag2
ag2
ag2
ag2
ag2
ag2
ag2
ag2
ag2
ag2
ag2
ag2
ag2
ag2
ag2
ag2
ag2
ag2
ag2
ag2
ag2
ag2
ag2
ag2
ag2
ag2
ag2
ag2
ag2
ag2
ag2
ag2
ag2
ag2
ag2
ag2
ag2
ag2
ag2
ag2
ag2
ag2
ag2
ag2
ag2
ag2
ag2
ag2
ag2
ag2
ag2
ag2
ag2
ag2
ag2
ag2
ag2
ag2
ag2
ag2
ag2
ag2
ag2
ag2
ag2
ag2
ag2
ag2
ag2
ag2
ag2
ag2
ag2
ag2
ag2
ag2
ag2
ag2
ag2
ag2
ag2
ag2
ag2
ag2
ag2
ag2
ag2
ag2
ag2
ag2
ag2
ag2
ag2
ag2
ag2
ag2
ag2
ag2
ag2
ag2
ag2
ag2
ag2
ag2
ag2
ag2
ag2
ag2
ag2
ag2
ag2
ag2
ag2
ag2
ag2
ag2
ag2
ag2
ag2
ag2
ag2
ag2
ag2
ag2
ag2
ag2
ag2
ag2
ag2
ag2
ag2
ag2
ag2
ag2
ag2
ag2
ag2
ag2
ag2
ag2
ag2
ag2
ag2
ag2
ag2
ag2
ag2
ag2
ag2
ag2
ag2
ag2
ag2
ag2
ag2
ag2
ag2
ag2
ag2
ag2
ag2
ag2
ag2
ag2
ag2
ag2
ag2
ag2
ag2
ag2
ag2
ag2
ag2
ag2
ag2
ag2
ag2
ag2
ag2
ag2
ag2
ag2
ag2
ag2
ag2
ag2
ag2
ag2
ag2
ag2
ag2
ag2
ag2
ag2
ag2
ag2
ag2
ag2
ag2
ag2
ag2
ag2
ag2
ag2
ag2
ag2
ag2
ag2
ag2
ag2
ag2
ag2
ag2
ag2
ag2
ag2
ag2
ag2
ag2
ag2
ag2
ag2
ag2
ag2
ag2
ag2
ag2
ag2
ag2
ag2
ag2
ag2
ag2
ag2
ag2
ag2
ag2
ag2
ag2
ag2
ag2
ag2
ag2
ag2
ag2
ag2
ag2
ag2
ag2
ag2
ag2
ag2
ag2
ag2
ag2
ag2
ag2
ag2
ag2
ag2
ag2
ag2
ag2
ag2
ag2
ag2
ag2
ag2
ag2
ag2
ag2
ag2
ag2
ag2
ag2
ag2
ag2
ag2
ag2
ag2
ag2
ag2
ag2
ag2
ag2
ag2
ag2
ag2
ag2
ag2
ag2
ag2
ag2
ag2
ag2
ag2
ag2
ag2
ag2
ag2
ag2
ag2
ag2
ag2
ag2
ag2
ag2
ag2
ag2
ag2
ag2
ag2
ag2
ag2
ag2
ag2
ag2
ag2
ag2
ag2
ag2
ag2
ag2
ag2
ag2
ag2
ag2
ag2
ag2
ag2
ag2
ag2
ag2
ag2
ag2
ag2
ag2
ag2
ag2
ag2
ag2
ag2
ag2
ag2
ag2
ag2
ag2
ag2
ag2
ag2
ag2
ag2
ag2
ag2
ag2
ag2
ag2
ag2
ag2
ag2
ag2
ag2
ag2
ag2
ag2
ag2
ag2
ag2
ag2
ag2
ag2
ag2
ag2
ag2
ag2
ag2
ag2
ag2
ag2
ag2
ag2
ag2
ag2
ag2
ag2
ag2
ag2
ag2
ag2
ag2
ag2
ag2
ag2
ag2
ag2
ag2
ag2
ag2
ag2
ag2
ag2
ag2
ag2
ag2
ag2
ag2
ag2
ag2
ag2
ag2
ag2
ag2
ag2
ag2
ag2
ag2
ag2
ag2
ag2
ag2
ag2
ag2
ag2
ag2
ag2
ag2
ag2
ag2
ag2
ag2
ag2
ag2
ag2
ag2
ag2
ag2
ag2
ag2
ag2
ag2
ag2
ag2
ag2
ag2
ag2
ag2
ag2
ag2
ag2
ag2
ag2
ag2
ag2
ag2
ag2
ag2
ag2
ag2
ag2
ag2
ag2
ag2
ag2
ag2
ag2
ag2
ag2
ag2
ag2
ag2
ag2
ag2
ag2
ag2
ag2
ag2
ag2
ag2
ag2
ag2
ag2
ag2
ag2
ag2
ag2
ag2
ag2
ag2
ag2
ag2
ag2
ag2
ag2
ag2
ag2
ag2
ag2
ag2
ag2
ag2
ag2
ag2
ag2
ag2
ag2
ag2
ag2
ag2
ag2
ag2
ag2
ag2
ag2
ag2
ag2
ag2
ag2
ag2
ag2
ag2
ag2
ag2
ag2
ag2
ag2
ag2
ag2
ag2
ag2
ag2
ag2
ag2
ag2
ag2
ag2
ag2
ag2
ag2
ag2
ag2
ag2
ag2
ag2
ag2
ag2
ag2
ag2
ag2
ag2
ag2
ag2
ag2
ag2
ag2
ag2
ag2
ag2
ag2
ag2
ag2
ag2
ag2
ag2
ag2
ag2
ag2
ag2
ag2
ag2
ag2
ag2
ag2
ag2
ag2
ag2
ag2
ag2
ag2
ag2
ag2
ag2
ag2
ag2
ag2
ag2
ag2
ag2
ag2
ag2
ag2
ag2
ag2
ag2
ag2
ag2
ag2
ag2
ag2
ag2
ag2
ag2
ag2
ag2
ag2
ag2
ag2
ag2
ag2
ag2
ag2
ag2
ag2
ag2
ag2
ag2
ag2
ag2
ag2
ag2
ag2
ag2
ag2
ag2
ag2
ag2
ag2
ag2
ag2
ag2
ag2
ag2
ag2
ag2
ag2
ag2
ag2
ag2
ag2
ag2
ag2
ag2
ag2
ag2
ag2
ag2
ag2
ag2
ag2
ag2
ag2
ag2
ag2
ag2
ag2
ag2
ag2
ag2
ag2
ag2
ag2
ag2
ag2
ag2
ag2
ag2
ag2
ag2
ag2
ag2
ag2
ag2
ag2
ag2
ag2
ag2
ag2
ag2
ag2
ag2
ag2
ag2
ag2
ag2
ag2
ag2
ag2
ag2
ag2
ag2
ag2
ag2
ag2
ag2
ag2
ag2
ag2
ag2
ag2
ag2
ag2
ag2
ag2
ag2
ag2
ag2
ag2
ag2
ag2
ag2
ag2
ag2
ag2
ag2
ag2
ag2
ag2
ag2
ag2
ag2
ag2
ag2
ag2
ag2
ag2
ag2
ag2
ag2
ag2
ag2
ag2
ag2
ag2
ag2
ag2
ag2
ag2
ag2
ag2
ag2
ag2
ag2
ag2
ag2
ag2
ag2
ag2
ag2
ag2
ag2
ag2
ag2
ag2
ag2
ag2
ag2
ag2
ag2
ag2
ag2
ag2
ag2
ag2
ag2
ag2
ag2
ag2
ag2
ag2
ag2
ag2
ag2
ag2
ag2
ag2
ag2
ag2
ag2
ag2
ag2
ag2
ag2
ag2
ag2
ag2
ag2
ag2
ag2
ag2
ag2
ag2
ag2
ag2
ag2
ag2
ag2
ag2
ag2
ag2
ag2
ag2
ag2
ag2
ag2
ag2
ag2
ag2
ag2
ag2
ag2
ag2
ag2
ag2
ag2
ag2
ag2
ag2
ag2
ag2
ag2
ag2
ag2
ag2
ag2
ag2
ag2
ag2
ag2
ag2
ag2
ag2
ag2
ag2
ag2
ag2
ag2
ag2
ag2
ag2
ag2
ag2
ag2
ag2
ag2
ag2
ag2
ag2
ag2
ag2
ag2
ag2
ag2
ag2
ag2
ag2
ag2
ag2
ag2
ag2
ag2
ag2
ag2
ag2
ag2
ag2
ag2
ag2
ag2
ag2
ag2
ag2
ag2
ag2
ag2
ag2
ag2
ag2
ag2
ag2
ag2
ag2
ag2
ag2
ag2
ag2
ag2
ag2
ag2
ag2
ag2
ag2
ag2
ag2
ag2
ag2
ag2
ag2
ag2
ag2
ag2
ag2
ag2
ag2
ag2
ag2
ag2
ag2
ag2
ag2
ag2
ag2
ag2
ag2
ag2
ag2
ag2
ag2
ag2
ag2
ag2
ag2
ag2
ag2
ag2
ag2
ag2
ag2
ag2
ag2
ag2
ag2
ag2
ag2
ag2
ag2
ag2
ag2
ag2
ag2
ag2
ag2
ag2
ag2
ag2
ag2
ag2
ag2
ag2
ag2
ag2
ag2
ag2
ag2
ag2
ag2
ag2
ag2
ag2
ag2
ag2
ag2
ag2
ag2
ag2
ag2
ag2
ag2
ag2
ag2
ag2
ag2
ag2
ag2
ag2
ag2
ag2
ag2
ag2
ag2
ag2
ag2
ag2
ag2
ag2
ag2
ag2
ag2
ag2
ag2
ag2
ag2
ag2
ag2
ag2
ag2
ag2
ag2
ag2
ag2
ag2
ag2
ag2
ag2
ag2
ag2
ag2
ag2
ag2
ag2
ag2
ag2
ag2
ag2
ag2
ag2
ag2
ag2
ag2
ag2
ag2
ag2
ag2
ag2
ag2
ag2
ag2
ag2
ag2
ag2
ag2
ag2
ag2
ag2
ag2
ag2
ag2
ag2
ag2
ag2
ag2
ag2
ag2
ag2
ag2
ag2
ag2
ag2
ag2
ag2
ag2
ag2
ag2
ag2
ag2
ag2
ag2
ag2
ag2
ag2
ag2
ag2
ag2
ag2
ag2
ag2
ag2
ag2
ag2
ag2
ag2
ag2
ag2
ag2
ag2
ag2
ag2
ag2
ag2
ag2
ag2
ag2
ag2
ag2
ag2
ag2
ag2
ag2
ag2
ag2
ag2
ag2
ag2
ag2
ag2
ag2
ag2
ag2
ag2
ag2
ag2
ag2
ag2
ag2
ag2
ag2
ag2
ag2
ag2
ag2
ag2
ag2
ag2
ag2
ag2
ag2
ag2
ag2
ag2
ag2
ag2
ag2
ag2
ag2
ag2
ag2
ag2
ag2
ag2
ag2
ag2
ag2
ag2
ag2
ag2
ag2
ag2
ag2
ag2
ag2
ag2
ag2
ag2
ag2
ag2
ag2
ag2
ag2
ag2
ag2
ag2
ag2
ag2
ag2
ag2
ag2
ag2
ag2
ag2
ag2
ag2
ag2
ag2
ag2
ag2
ag2
ag2
ag2
ag2
ag2
ag2
ag2
ag2
ag2
ag2
ag2
ag2
ag2
ag2
ag2
ag2
ag2
asI2
(lp3
g2
ag2
ag2
ag2
ag2
ag2
ag2
ag2
ag2
ag2
ag2
ag2
ag2
ag2
ag2
ag2
ag2
ag2
ag2
ag2
ag2
ag2
ag2
ag2
ag2
ag2
ag2
ag2
ag2
ag2
ag2
ag2
ag2
ag2
ag2
ag2
ag2
ag2
ag2
ag2
ag2
ag2
ag2
ag2
ag2
ag2
ag2
ag2
ag2
ag2
ag2
ag2
ag2
ag2
ag2
ag2
ag2
ag2
ag2
ag2
ag2
ag2
ag2
ag2
ag2
ag2
ag2
ag2
ag2
ag2
ag2
ag2
ag2
ag2
ag2
ag2
ag2
ag2
ag2
ag2
ag2
ag2
ag2
ag2
ag2
ag2
ag2
ag2
ag2
ag2
ag2
ag2
ag2
ag2
ag2
ag2
ag2
ag2
ag2
ag2
ag2
ag2
ag2
ag2
ag2
ag2
ag2
ag2
ag2
ag2
ag2
ag2
ag2
ag2
ag2
ag2
ag2
ag2
ag2
ag2
ag2
ag2
ag2
ag2
ag2
ag2
ag2
ag2
ag2
ag2
ag2
ag2
ag2
ag2
ag2
ag2
ag2
ag2
ag2
ag2
ag2
ag2
ag2
ag2
ag2
ag2
ag2
ag2
ag2
ag2
ag2
ag2
ag2
ag2
ag2
ag2
ag2
ag2
ag2
ag2
ag2
ag2
ag2
ag2
ag2
ag2
ag2
ag2
ag2
ag2
ag2
ag2
ag2
ag2
ag2
ag2
ag2
ag2
ag2
ag2
ag2
ag2
ag2
ag2
ag2
ag2
ag2
ag2
ag2
ag2
ag2
ag2
ag2
ag2
ag2
ag2
ag2
ag2
ag2
ag2
ag2
ag2
ag2
ag2
ag2
ag2
ag2
ag2
ag2
ag2
ag2
ag2
ag2
ag2
ag2
ag2
ag2
ag2
ag2
ag2
ag2
ag2
ag2
ag2
ag2
ag2
ag2
ag2
ag2
ag2
ag2
ag2
ag2
ag2
ag2
ag2
ag2
ag2
ag2
ag2
ag2
ag2
ag2
ag2
ag2
ag2
ag2
ag2
ag2
ag2
ag2
ag2
ag2
ag2
ag2
ag2
ag2
ag2
ag2
ag2
ag2
ag2
ag2
ag2
ag2
ag2
ag2
ag2
ag2
ag2
ag2
ag2
ag2
ag2
ag2
ag2
ag2
ag2
ag2
ag2
ag2
ag2
ag2
ag2
ag2
ag2
ag2
ag2
ag2
ag2
ag2
ag2
ag2
ag2
ag2
ag2
ag2
ag2
ag2
ag2
ag2
ag2
ag2
ag2
ag2
ag2
ag2
ag2
ag2
ag2
ag2
ag2
ag2
ag2
ag2
ag2
ag2
ag2
ag2
ag2
ag2
ag2
ag2
ag2
ag2
ag2
ag2
ag2
ag2
ag2
ag2
ag2
ag2
ag2
ag2
ag2
ag2
ag2
ag2
ag2
ag2
ag2
ag2
ag2
ag2
ag2
ag2
ag2
ag2
aS'#ffffb3'
p4
ag2
ag2
ag2
ag2
ag2
ag2
ag2
ag2
ag2
ag2
ag2
ag2
ag2
ag2
ag2
ag2
ag2
ag2
ag2
ag2
ag2
ag2
ag2
ag2
ag2
ag2
ag2
ag2
ag2
ag2
ag2
ag2
ag2
ag2
ag2
ag2
ag2
ag2
ag2
ag2
ag2
ag2
ag2
ag2
ag2
ag2
ag2
ag2
ag2
ag2
ag2
ag2
ag2
ag2
ag2
ag2
ag2
ag2
ag2
ag2
ag2
ag2
ag2
ag2
ag2
ag2
ag2
ag2
ag2
ag2
ag2
ag2
ag2
ag2
ag2
ag2
ag2
ag2
ag2
ag2
ag2
ag2
ag2
ag2
ag2
ag2
ag2
ag2
ag2
ag2
ag2
ag2
ag2
ag2
ag2
ag2
ag2
ag2
ag2
ag2
ag2
ag2
ag2
ag2
ag2
ag2
ag2
ag2
ag2
ag2
ag2
ag2
ag2
ag2
ag2
ag2
ag2
ag2
ag2
ag2
ag2
ag2
ag2
ag2
ag2
ag2
ag2
ag2
ag2
ag2
ag2
ag2
ag2
ag2
ag2
ag2
ag2
ag2
ag2
ag2
ag2
ag2
ag2
ag2
ag2
ag2
ag2
ag2
ag2
ag2
ag4
ag4
ag4
ag4
ag4
ag4
ag4
ag4
ag4
ag4
ag4
ag4
ag4
ag4
ag4
ag4
ag4
ag4
ag4
ag4
ag4
ag4
ag4
ag4
ag4
ag4
ag4
ag2
ag4
ag4
ag4
ag4
ag4
ag4
ag4
ag4
ag4
ag4
ag4
ag4
ag4
ag4
ag4
ag4
ag4
ag4
ag4
ag4
ag4
ag4
ag4
ag4
ag4
ag4
ag4
ag4
ag4
ag4
ag4
ag4
ag4
ag4
ag4
ag4
ag4
ag4
ag4
ag4
ag4
ag4
ag4
ag4
ag2
ag4
ag4
ag4
ag4
ag4
ag4
ag4
ag4
ag4
ag4
ag4
ag4
ag4
ag4
ag4
ag4
ag4
ag4
ag4
ag4
ag4
ag4
ag4
ag4
ag4
ag4
ag4
ag4
ag4
ag4
ag4
ag4
ag4
ag4
ag4
ag4
ag4
ag4
ag4
ag4
ag4
ag4
ag4
ag4
ag4
ag4
ag4
ag4
ag4
ag4
ag4
ag4
ag4
ag4
ag4
ag4
ag4
ag4
ag4
ag4
ag4
ag4
ag4
ag4
ag4
ag4
ag4
ag4
ag4
ag4
ag4
ag4
ag4
ag4
ag4
ag4
ag4
ag4
ag4
ag4
ag4
ag4
ag4
ag4
ag4
ag4
ag4
ag4
ag4
ag4
ag4
ag4
ag4
ag4
ag4
ag4
ag4
ag4
ag4
ag4
ag4
ag4
ag4
ag4
ag4
ag4
ag4
ag4
ag4
ag4
ag4
ag4
ag4
ag4
ag4
ag4
ag4
ag4
ag4
ag4
ag4
ag4
ag4
ag4
ag4
ag4
ag4
ag4
ag4
ag4
ag4
ag4
ag2
ag4
ag4
ag4
ag2
ag4
ag4
ag4
ag4
ag4
ag4
ag4
ag4
ag4
ag4
ag4
ag4
ag4
ag4
ag4
ag4
ag4
ag4
ag4
ag4
ag4
ag4
ag4
ag4
ag4
ag4
ag4
ag4
ag4
ag4
ag4
ag4
ag4
ag4
ag4
ag4
ag4
ag4
ag4
ag4
ag4
ag4
ag4
ag4
ag4
ag4
ag4
ag4
ag4
ag4
ag4
ag4
ag4
ag4
ag4
ag4
ag4
ag4
ag4
ag4
ag4
ag4
ag4
ag4
ag4
ag4
ag4
ag4
ag4
ag4
ag4
ag4
ag4
ag4
ag4
ag4
ag4
ag4
ag4
ag4
ag4
ag4
ag4
ag4
ag4
ag4
ag4
ag4
ag4
ag4
ag4
ag4
ag4
ag4
ag4
ag4
ag4
ag2
ag4
ag4
ag4
ag4
ag4
ag4
ag4
ag4
ag4
ag4
ag4
ag4
ag4
ag4
ag4
ag4
ag4
ag4
ag4
ag4
ag4
ag4
ag4
ag4
ag4
ag4
ag4
ag4
ag4
ag4
ag4
ag4
ag4
ag4
ag4
ag4
ag4
ag4
ag4
ag4
ag4
ag4
ag4
ag4
ag4
ag4
ag4
ag4
ag4
ag4
ag4
ag4
ag4
ag4
ag4
ag4
ag4
ag2
ag4
ag4
ag4
ag4
ag4
ag4
ag4
ag4
ag4
ag4
ag4
ag4
ag4
ag4
ag4
ag4
ag4
ag4
ag4
ag4
ag4
ag4
ag4
ag4
ag4
ag4
ag4
ag4
ag4
ag4
ag4
ag4
ag4
ag4
ag4
ag4
ag4
ag4
ag4
ag4
ag4
ag4
ag4
ag4
ag4
ag4
ag4
ag4
ag4
ag4
ag4
ag4
ag4
ag4
ag4
ag4
ag4
ag4
ag4
ag2
ag4
ag4
ag4
ag4
ag4
ag4
ag4
ag4
ag4
ag4
ag4
ag4
ag4
ag4
ag4
ag4
ag4
ag4
ag4
ag4
ag4
ag4
ag4
ag4
ag4
ag4
ag4
ag4
ag4
ag4
ag4
ag4
ag4
ag4
ag4
ag4
ag4
ag4
ag4
ag4
ag4
ag4
ag4
ag4
ag4
ag4
ag4
ag4
ag4
ag4
ag4
ag2
ag4
ag4
ag4
ag4
ag4
ag4
ag4
ag4
ag4
ag4
ag4
ag4
ag4
ag4
ag4
ag4
ag4
ag4
ag4
ag4
ag4
ag4
ag4
ag4
ag4
ag4
ag4
ag4
ag4
ag4
ag4
ag4
ag4
ag4
ag4
ag4
ag4
ag4
ag4
ag4
ag4
ag4
ag4
ag4
ag4
ag4
ag4
ag4
ag4
ag4
ag4
ag4
ag4
ag4
ag4
ag4
ag4
ag4
ag4
ag4
ag4
ag4
ag4
ag4
ag4
ag4
ag4
ag4
ag4
ag4
ag4
ag4
ag4
ag4
ag4
ag4
ag4
ag4
ag4
ag4
ag4
ag4
ag4
ag4
ag4
ag4
ag4
ag4
ag4
ag4
ag4
ag4
ag4
ag4
ag4
ag4
ag4
ag4
ag4
ag4
ag4
ag4
ag4
ag4
ag4
ag4
ag4
ag4
ag4
ag4
ag4
ag4
ag4
ag4
ag4
ag4
ag4
ag4
ag4
ag4
ag4
ag4
ag4
ag4
ag4
ag4
ag4
ag4
ag4
ag4
ag4
ag4
ag4
ag4
ag4
ag4
ag4
ag4
ag4
ag4
ag4
ag4
ag4
ag4
ag4
ag4
ag4
ag4
ag4
ag4
ag4
ag4
ag4
ag4
ag4
ag4
ag4
ag4
ag4
ag4
ag4
ag4
ag4
ag4
ag4
ag4
ag4
ag4
ag4
ag4
ag4
ag4
ag4
ag4
ag4
ag4
ag4
ag4
ag4
ag4
ag4
ag4
ag4
ag4
ag4
ag4
ag4
ag4
ag4
ag4
ag4
ag4
ag4
ag4
ag4
ag4
ag4
ag4
ag4
ag4
ag4
ag4
ag4
ag4
ag4
ag4
ag4
ag4
ag4
ag4
ag4
ag4
ag4
ag4
ag4
ag4
ag4
ag4
ag4
ag4
ag4
ag4
ag4
ag4
ag4
ag4
ag4
ag4
ag4
ag4
ag4
ag4
ag4
ag4
ag4
ag4
ag4
ag4
ag4
ag4
ag4
ag4
ag4
ag4
ag4
ag4
ag4
ag4
ag4
ag4
ag4
ag4
ag4
ag4
ag4
ag4
ag4
ag4
ag4
ag4
ag4
ag4
ag4
ag4
ag4
ag4
ag4
ag4
ag4
ag4
ag4
ag4
ag4
ag4
ag4
ag4
ag4
ag4
ag4
ag4
ag4
ag4
ag4
ag4
ag4
ag4
ag4
ag4
ag4
ag4
ag4
ag4
ag4
ag4
ag4
ag4
ag4
ag4
ag4
ag4
ag4
ag4
ag4
ag4
ag4
ag4
ag4
ag4
ag4
ag4
ag4
ag4
ag4
ag4
ag4
ag4
ag4
ag4
ag4
ag4
ag4
ag4
ag4
ag4
ag4
ag4
ag4
ag4
ag4
ag4
ag4
ag4
ag4
ag4
ag4
ag4
ag4
ag4
ag4
ag4
ag4
ag4
ag4
ag4
ag4
ag4
ag4
ag4
ag4
ag4
ag4
ag4
ag4
ag4
ag4
ag4
ag4
ag4
ag4
ag4
ag4
ag4
ag4
ag4
ag4
ag4
ag4
ag4
ag4
ag4
ag4
ag4
ag4
ag4
ag4
ag4
ag4
ag4
ag4
ag4
ag4
ag4
ag4
ag4
ag4
ag4
ag4
ag4
ag4
ag4
ag4
ag4
ag4
ag4
ag4
ag4
ag4
ag4
ag4
ag4
ag4
ag4
ag4
ag4
ag4
ag4
ag4
ag4
ag4
ag4
ag4
ag4
ag4
ag4
ag4
ag4
ag4
ag4
ag4
ag4
ag4
ag4
ag4
ag4
ag4
ag4
ag4
ag4
ag4
ag4
ag4
ag4
ag4
ag4
ag4
ag4
ag4
ag4
ag4
ag4
ag4
ag4
ag4
ag4
ag4
ag4
ag4
ag4
ag4
ag4
ag4
ag4
ag4
ag4
ag4
ag4
ag4
ag4
ag4
ag4
ag4
ag4
ag4
ag4
ag4
ag4
ag4
ag4
ag4
ag4
ag4
ag4
ag4
ag4
ag4
ag4
ag4
ag4
ag4
ag4
ag4
ag4
ag4
ag4
ag4
ag4
ag4
ag4
ag4
ag4
ag4
ag4
ag4
ag4
ag4
ag4
ag4
ag4
ag4
ag4
ag4
ag4
ag4
ag4
ag4
ag4
ag4
ag4
ag4
ag4
ag4
ag4
ag4
ag4
ag4
ag4
ag4
ag4
ag4
ag4
ag4
ag4
asI3
(lp5
g4
ag4
ag4
ag4
ag4
ag4
ag4
ag4
ag4
ag4
ag4
ag4
ag4
ag4
ag4
ag4
ag4
ag4
ag4
ag4
ag4
ag4
ag4
ag4
ag4
ag4
ag4
ag4
ag4
ag4
ag4
ag4
ag4
ag4
ag4
ag4
ag4
ag4
ag4
ag4
ag4
ag4
ag4
ag4
ag4
ag4
ag4
ag4
ag4
ag4
ag4
ag4
ag4
ag4
ag4
ag4
ag4
ag4
ag4
ag4
ag4
ag4
ag4
ag4
ag4
ag4
ag4
ag4
ag4
ag4
ag4
ag4
ag4
ag4
ag4
ag4
ag4
ag4
ag4
ag4
ag4
ag4
ag4
ag4
ag4
ag4
ag4
ag4
ag4
ag4
ag4
ag4
ag4
ag4
ag4
ag4
ag4
ag4
ag4
ag4
ag4
ag4
ag4
ag4
ag4
ag4
ag4
ag4
ag4
ag4
ag4
ag4
ag4
ag4
ag4
ag4
ag4
ag4
ag4
ag4
ag4
ag4
ag4
ag4
ag4
ag4
ag4
ag4
ag4
ag4
ag4
ag4
ag4
ag4
ag4
ag4
ag4
ag4
ag4
ag4
ag4
ag4
ag4
ag4
ag4
ag4
ag4
ag4
ag4
ag4
ag4
ag4
ag4
ag4
ag4
ag4
ag4
ag4
ag4
ag4
ag4
ag4
ag4
ag4
ag4
ag4
ag4
ag4
ag4
ag4
ag4
ag4
ag4
ag4
ag4
ag4
ag4
ag4
ag4
ag4
ag4
ag4
ag4
ag4
ag4
ag4
ag4
ag4
ag4
ag4
ag4
ag4
ag4
ag4
ag4
ag4
ag4
ag4
ag4
ag4
ag4
ag4
ag4
ag4
ag4
ag4
ag4
ag4
ag4
ag4
ag4
ag4
ag4
ag4
ag4
ag4
ag4
ag4
ag4
ag4
ag4
ag4
ag4
ag4
ag4
ag4
ag4
ag4
ag4
ag4
ag4
ag4
ag4
ag4
ag4
ag4
ag4
ag4
ag4
ag4
ag4
ag4
ag4
ag4
ag4
ag4
ag4
ag4
ag4
ag4
ag4
ag4
ag4
ag4
ag4
ag4
ag4
ag4
ag4
ag4
ag4
ag4
ag4
ag4
ag4
ag4
ag4
ag4
ag4
ag4
ag4
ag4
ag4
ag4
ag4
ag4
ag4
ag4
ag4
ag4
ag4
ag4
ag4
ag4
ag4
ag4
ag4
ag4
ag4
ag4
ag4
ag4
ag4
ag4
ag4
ag4
ag4
ag4
ag4
ag4
ag4
ag4
ag4
ag4
ag4
ag4
ag4
ag4
ag4
ag4
ag4
ag4
ag4
ag4
ag4
ag4
ag4
ag4
ag4
ag4
ag4
ag4
ag4
ag4
ag4
ag4
ag4
ag4
ag4
ag4
ag4
ag4
ag4
ag4
ag4
ag4
ag4
ag4
ag4
ag4
ag4
ag4
ag4
ag4
ag4
ag4
ag4
ag4
ag4
ag2
ag4
ag4
ag4
ag4
ag4
ag4
ag4
ag4
ag4
ag4
ag4
ag4
ag4
ag4
ag4
ag4
ag4
ag4
ag4
ag4
ag4
ag4
ag4
ag4
ag4
ag4
ag4
ag4
ag4
ag4
ag4
ag4
ag4
ag4
ag4
ag4
ag4
ag4
ag4
ag4
ag4
ag4
ag4
ag4
ag4
ag4
ag4
ag4
ag4
ag4
ag4
ag4
ag4
ag4
ag4
ag4
ag4
ag4
ag4
ag4
ag4
ag4
ag4
ag4
ag4
ag4
ag4
ag4
ag4
ag4
ag4
ag4
ag4
ag4
ag4
ag4
ag4
ag4
ag4
ag4
ag4
ag4
ag4
ag4
ag4
ag4
ag4
ag4
ag4
ag4
ag4
ag4
ag4
ag4
ag4
ag4
ag4
ag4
ag4
ag4
ag4
ag4
ag4
ag4
ag4
ag4
ag4
ag4
ag4
ag4
ag4
ag4
ag4
ag4
ag4
ag4
ag4
ag4
ag4
ag4
ag4
ag4
ag4
ag4
ag4
ag4
ag4
ag4
ag4
ag4
ag4
ag4
ag4
ag4
ag4
ag4
ag4
ag4
ag4
ag4
ag4
ag4
ag4
ag4
ag4
ag4
ag4
ag4
ag4
ag4
aS'#bebada'
p6
ag6
ag6
ag6
ag6
ag6
ag6
ag6
ag6
ag6
ag6
ag6
ag6
ag6
ag6
ag6
ag6
ag6
ag6
ag6
ag6
ag6
ag6
ag6
ag6
ag6
ag6
ag6
ag6
ag6
ag6
ag6
ag6
ag6
ag6
ag6
ag6
ag6
ag6
ag6
ag6
ag6
ag6
ag6
ag6
ag6
ag6
ag6
ag6
ag6
ag6
ag6
ag6
ag6
ag6
ag6
ag6
ag6
ag6
ag6
ag6
ag6
ag6
ag6
ag6
ag6
ag6
ag6
ag6
ag6
ag6
ag6
ag6
ag6
ag6
ag6
ag6
ag6
ag6
ag6
ag6
ag6
ag6
ag6
ag6
ag6
ag6
ag6
ag6
ag6
ag6
ag6
ag6
ag6
ag6
ag6
ag6
ag6
ag6
ag6
ag6
ag6
ag6
ag6
ag6
ag6
ag6
ag6
ag6
ag6
ag6
ag6
ag6
ag6
ag6
ag6
ag6
ag6
ag6
ag6
ag6
ag6
ag6
ag6
ag6
ag6
ag6
ag6
ag6
ag6
ag6
ag6
ag6
ag6
ag6
ag6
ag6
ag6
ag6
ag6
ag6
ag6
ag6
ag6
ag6
ag6
ag6
ag6
ag6
ag6
ag6
ag6
ag6
ag6
ag6
ag6
ag6
ag6
ag6
ag6
ag6
ag6
ag6
ag6
ag6
ag6
ag6
ag6
ag6
ag6
ag6
ag6
ag6
ag6
ag6
ag6
ag6
ag6
ag6
ag6
ag6
ag6
ag6
ag6
ag6
ag6
ag6
ag6
ag6
ag6
ag6
ag6
ag6
ag6
ag6
ag6
ag6
ag6
ag6
ag6
ag6
ag6
ag6
ag6
ag6
ag6
ag6
ag6
ag6
ag6
ag6
ag6
ag6
ag6
ag6
ag6
ag6
ag6
ag6
ag6
ag6
ag6
ag6
ag6
ag6
ag6
ag6
ag6
ag6
ag6
ag6
ag6
ag6
ag6
ag6
ag6
ag6
ag6
ag6
ag6
ag6
ag6
ag6
ag6
ag6
ag6
ag6
ag6
ag6
ag6
ag6
ag6
ag6
ag6
ag6
ag6
ag6
ag6
ag6
ag6
ag6
ag6
ag6
ag6
ag6
ag6
ag6
ag6
ag6
ag6
ag6
ag6
ag6
ag6
ag6
ag6
ag6
ag6
ag6
ag6
ag6
ag6
ag6
ag6
ag6
ag6
ag6
ag6
ag6
ag6
ag6
ag6
ag6
ag6
ag6
ag6
ag6
ag6
ag6
ag6
ag6
ag6
ag6
ag6
ag6
ag6
ag6
ag6
ag6
ag6
ag6
ag6
ag6
ag6
ag6
ag6
ag6
ag6
ag6
ag6
ag6
ag6
ag6
ag6
ag6
ag6
ag6
ag6
ag6
ag6
ag6
ag6
ag6
ag6
ag6
ag6
ag6
ag6
ag6
ag6
ag6
ag6
ag6
ag6
ag6
ag6
ag6
ag6
ag6
ag6
ag6
ag6
ag6
ag6
ag6
ag6
ag6
ag6
ag6
ag6
ag6
ag6
ag6
ag6
ag6
ag6
ag6
ag6
ag6
ag6
ag6
ag6
ag6
ag6
ag6
ag6
ag6
ag6
ag6
ag6
ag6
ag6
ag6
ag6
ag6
ag6
ag6
ag6
ag6
ag6
ag6
ag6
ag6
ag6
ag6
ag6
ag6
ag6
ag6
ag6
ag6
ag6
ag6
ag6
ag6
ag6
ag6
ag6
ag6
ag6
ag6
ag6
ag6
ag6
ag6
ag6
ag6
ag6
ag6
ag6
ag6
ag6
ag6
ag6
ag6
ag6
ag6
ag6
ag6
ag6
ag6
ag6
ag6
ag6
ag6
ag6
ag6
ag6
ag6
ag6
ag6
ag6
ag6
ag6
ag6
ag6
ag6
ag6
ag6
ag6
ag6
ag6
ag6
ag6
ag6
ag6
ag6
ag6
ag6
ag6
ag6
ag6
ag6
ag6
ag6
ag6
ag6
ag6
ag6
ag6
ag6
ag6
ag6
ag6
ag6
ag6
ag6
ag6
ag6
ag6
ag6
ag6
ag6
ag6
ag6
ag6
ag6
ag6
ag6
ag6
ag6
ag6
ag6
ag6
ag6
ag6
ag6
ag6
ag6
ag6
ag2
ag2
ag2
ag2
ag2
ag2
ag2
ag2
ag2
ag2
ag2
ag2
ag2
ag2
ag2
ag2
ag2
ag2
ag2
ag2
ag2
ag2
ag2
ag2
ag2
ag2
ag2
ag2
ag2
ag2
ag2
ag2
ag2
ag2
ag2
ag2
ag2
ag2
ag2
ag2
ag2
ag2
ag2
ag2
ag2
ag2
ag2
ag2
ag2
ag2
ag2
ag2
ag2
ag2
ag2
ag2
ag2
ag2
ag2
ag2
ag2
ag2
ag2
ag2
ag2
ag2
ag2
ag2
ag2
ag2
ag2
ag2
ag2
ag2
ag2
ag2
ag2
ag2
ag2
ag2
ag2
ag2
ag2
ag2
ag2
ag2
ag2
ag2
ag2
ag2
ag2
ag2
ag2
ag2
ag2
ag2
ag2
ag2
ag2
ag2
ag2
ag2
ag2
ag2
ag2
ag2
ag2
ag2
ag2
ag2
ag2
ag2
ag2
ag2
ag2
ag2
ag2
ag2
ag2
ag2
ag2
ag2
ag2
ag2
ag2
ag2
ag2
ag2
ag2
ag2
ag2
ag2
ag2
ag2
ag2
ag2
ag2
ag2
ag2
ag2
ag2
ag2
ag2
ag2
ag2
ag2
ag2
ag6
ag2
ag2
ag2
ag2
ag2
ag2
ag2
ag2
ag2
ag2
ag2
ag2
ag2
ag2
ag2
ag2
ag2
ag2
ag2
ag2
ag2
ag2
ag2
ag2
ag2
ag2
ag2
ag2
ag2
ag2
ag2
ag2
ag2
ag2
ag2
ag2
ag2
ag2
ag2
ag2
ag2
ag2
ag2
ag2
ag2
ag2
ag2
ag2
ag2
ag2
ag2
ag2
ag2
ag2
ag2
ag2
ag2
ag2
ag2
ag2
ag2
ag2
ag2
ag2
ag2
ag2
ag2
ag2
ag2
ag2
ag2
ag2
ag2
ag2
ag2
ag2
ag2
ag2
ag2
ag2
ag2
ag2
ag2
ag2
ag2
ag2
ag2
ag2
ag2
ag2
ag2
ag2
ag2
ag2
ag2
ag2
ag2
ag2
ag2
ag2
ag2
ag2
ag2
ag2
ag2
ag2
ag2
ag2
ag2
ag2
ag2
ag2
ag2
ag2
ag2
ag2
ag2
ag2
ag2
ag2
ag2
ag2
ag2
ag2
ag2
ag2
ag2
ag2
ag2
ag2
ag2
ag2
ag2
ag2
ag2
ag2
ag2
ag2
ag2
ag2
ag2
ag2
ag2
ag2
ag2
ag2
ag2
ag2
ag2
ag2
ag2
ag2
ag2
ag2
ag2
ag2
ag2
ag2
ag2
ag2
ag2
ag2
ag2
ag2
ag2
ag2
ag2
ag2
ag2
ag2
ag2
ag2
ag2
ag2
ag2
ag2
ag2
ag2
ag2
ag2
ag2
ag2
ag2
ag2
ag2
ag2
ag2
ag2
ag2
ag2
ag2
ag2
ag2
ag2
ag2
ag2
ag2
ag2
ag2
ag2
ag2
ag2
ag2
ag2
ag2
ag2
ag2
ag2
ag2
ag2
ag2
ag2
ag2
ag2
ag2
ag2
ag2
ag2
ag2
ag2
ag2
ag2
ag2
ag2
ag2
ag2
ag2
ag2
ag2
ag2
ag2
ag2
ag2
ag2
ag2
ag2
ag2
ag2
ag2
ag2
ag2
ag2
ag2
ag2
ag2
ag2
ag2
ag2
ag2
ag2
ag2
ag2
ag2
ag2
ag2
ag2
ag2
ag2
ag2
ag2
ag2
ag2
ag2
ag2
ag2
ag2
ag2
ag2
ag2
ag2
ag2
ag2
ag2
ag2
ag2
ag2
ag2
ag2
ag2
ag2
ag2
ag2
ag2
ag2
ag2
ag2
ag2
ag2
ag2
ag2
ag2
ag2
ag2
ag2
ag2
ag2
ag2
ag2
ag2
ag2
ag2
ag2
ag2
ag2
ag2
ag2
ag2
ag2
ag2
ag2
ag2
ag2
ag2
ag2
ag2
ag2
ag2
ag2
ag2
ag2
ag2
ag2
ag2
ag2
ag2
ag2
ag2
ag2
ag2
ag2
ag2
ag2
ag2
ag2
ag2
ag2
ag2
ag2
ag2
ag2
ag2
ag2
ag2
ag2
ag2
ag2
ag2
ag2
ag2
ag2
ag2
ag2
asI4
(lp7
g6
ag6
ag6
ag6
ag6
ag6
ag6
ag6
ag6
ag6
ag6
ag6
ag6
ag6
ag6
ag6
ag6
ag6
ag6
ag6
ag6
ag6
ag6
ag6
ag6
ag6
ag6
ag6
ag6
ag6
ag6
ag6
ag6
ag6
ag6
ag6
ag6
ag6
ag6
ag6
ag6
ag6
ag6
ag6
ag6
ag6
ag6
ag6
ag6
ag6
ag6
ag6
ag6
ag6
ag6
ag6
ag6
ag6
ag6
ag6
ag6
ag6
ag6
ag6
ag6
ag6
ag6
ag6
ag6
ag6
ag6
ag6
ag6
ag6
ag6
ag6
ag6
ag6
ag6
ag6
ag6
ag6
ag6
ag6
ag6
ag6
ag6
ag6
ag6
ag6
ag6
ag6
ag6
ag6
ag6
ag6
ag6
ag6
ag6
ag6
ag6
ag6
ag6
ag6
ag6
ag6
ag6
ag6
ag6
ag6
ag6
ag6
ag6
ag6
ag6
ag6
ag6
ag6
ag6
ag6
ag6
ag6
ag6
ag6
ag6
ag6
ag6
ag6
ag6
ag6
ag6
ag6
ag6
ag6
ag6
ag6
ag6
ag6
ag6
ag6
ag6
ag6
ag6
ag6
ag6
ag6
ag6
ag6
ag6
ag6
ag6
ag6
ag6
ag6
ag6
ag6
ag6
ag6
ag6
ag6
ag6
ag6
ag6
ag6
ag6
ag6
ag6
ag6
ag6
ag6
ag6
ag6
ag6
ag6
ag6
ag6
ag6
ag6
ag6
ag6
ag6
ag6
ag6
ag6
ag6
ag6
ag6
ag6
ag6
ag6
ag6
ag6
ag6
ag6
ag6
ag6
ag6
ag6
ag6
ag6
ag6
ag6
ag6
ag6
ag6
ag6
ag6
ag6
ag6
ag6
ag6
ag6
ag6
ag6
ag6
ag6
ag6
ag6
ag6
ag6
ag6
ag6
ag6
ag6
ag6
ag6
ag6
ag6
ag6
ag6
ag6
ag6
ag6
ag6
ag6
ag6
ag6
ag6
ag6
ag6
ag6
ag6
ag6
ag6
ag6
ag6
ag6
ag6
ag6
ag6
ag6
ag6
ag6
ag6
ag6
ag6
ag6
ag6
ag6
ag6
ag6
ag6
ag6
ag6
ag6
ag6
ag6
ag6
ag6
ag6
ag6
ag6
ag6
ag6
ag6
ag6
ag6
ag6
ag6
ag6
ag6
ag6
ag6
ag6
ag6
ag6
ag6
ag6
ag6
ag6
ag6
ag6
ag6
ag6
ag6
ag6
ag6
ag6
ag6
ag6
ag6
ag6
ag6
ag6
ag6
ag6
ag6
ag6
ag6
ag6
ag6
ag6
ag6
ag6
ag6
ag6
ag6
ag6
ag6
ag6
ag6
ag6
ag6
ag6
ag6
ag6
ag6
ag6
ag6
ag6
ag6
ag6
ag6
ag6
ag6
ag6
ag6
ag6
ag6
ag6
ag6
ag6
ag6
ag6
ag6
ag6
ag6
ag6
ag6
ag4
ag6
ag6
ag6
ag6
ag6
ag6
ag6
ag6
ag6
ag6
ag6
ag6
ag6
ag6
ag6
ag6
ag6
ag6
ag6
ag6
ag6
ag6
ag6
ag6
ag6
ag6
ag6
ag6
ag6
ag6
ag6
ag6
ag6
ag6
ag6
ag6
ag6
ag6
ag6
ag6
ag6
ag6
ag6
ag6
ag6
ag6
ag6
ag6
ag6
ag6
ag6
ag6
ag6
ag6
ag6
ag6
ag6
ag6
ag6
ag6
ag6
ag6
ag6
ag6
ag6
ag6
ag6
ag6
ag6
ag6
ag6
ag6
ag6
ag6
ag6
ag6
ag6
ag6
ag6
ag6
ag6
ag6
ag6
ag6
ag6
ag6
ag6
ag6
ag6
ag6
ag6
ag6
ag6
ag6
ag6
ag6
ag6
ag6
ag6
ag6
ag6
ag6
ag6
ag6
ag6
ag6
ag6
ag6
ag6
ag6
ag6
ag6
ag6
ag6
ag6
ag6
ag6
ag6
ag6
ag6
ag6
ag6
ag6
ag6
ag6
ag6
ag6
ag6
ag6
ag6
ag6
ag6
ag6
ag6
ag6
ag6
ag6
ag6
ag6
ag6
ag6
ag6
ag6
ag6
ag6
ag6
ag6
ag6
ag6
ag6
aS'#fb8072'
p8
ag8
ag8
ag8
ag8
ag8
ag8
ag8
ag8
ag8
ag8
ag8
ag8
ag8
ag8
ag8
ag8
ag8
ag8
ag8
ag8
ag8
ag8
ag8
ag8
ag8
ag8
ag8
ag8
ag8
ag8
ag8
ag8
ag8
ag8
ag8
ag8
ag8
ag8
ag8
ag8
ag8
ag8
ag8
ag8
ag8
ag8
ag8
ag8
ag8
ag8
ag8
ag8
ag8
ag8
ag8
ag8
ag8
ag8
ag8
ag8
ag8
ag8
ag8
ag8
ag8
ag8
ag8
ag8
ag8
ag8
ag8
ag8
ag8
ag8
ag8
ag8
ag8
ag8
ag8
ag8
ag8
ag8
ag8
ag8
ag8
ag8
ag8
ag8
ag8
ag8
ag8
ag8
ag8
ag8
ag8
ag8
ag8
ag8
ag8
ag8
ag8
ag8
ag8
ag8
ag8
ag8
ag8
ag8
ag8
ag8
ag8
ag8
ag8
ag8
ag8
ag8
ag8
ag8
ag8
ag8
ag8
ag8
ag8
ag8
ag8
ag8
ag8
ag8
ag8
ag8
ag8
ag8
ag8
ag8
ag8
ag8
ag8
ag8
ag8
ag8
ag8
ag8
ag8
ag8
ag8
ag8
ag8
ag8
ag8
ag8
ag8
ag8
ag8
ag8
ag8
ag8
ag8
ag8
ag8
ag8
ag8
ag8
ag8
ag8
ag8
ag8
ag8
ag8
ag8
ag8
ag8
ag8
ag8
ag8
ag8
ag8
ag8
ag8
ag8
ag8
ag8
ag8
ag8
ag8
ag8
ag8
ag8
ag8
ag8
ag8
ag8
ag8
ag8
ag8
ag8
ag8
ag8
ag8
ag8
ag8
ag8
ag8
ag8
ag8
ag8
ag8
ag8
ag8
ag8
ag8
ag8
ag8
ag8
ag8
ag8
ag8
ag8
ag8
ag8
ag8
ag8
ag8
ag8
ag8
ag8
ag8
ag8
ag8
ag8
ag8
ag8
ag8
ag8
ag8
ag8
ag8
ag8
ag8
ag8
ag8
ag8
ag8
ag8
ag8
ag8
ag8
ag8
ag8
ag8
ag8
ag8
ag8
ag8
ag8
ag8
ag8
ag8
ag8
ag8
ag8
ag8
ag8
ag8
ag8
ag8
ag8
ag8
ag8
ag8
ag8
ag8
ag8
ag8
ag8
ag8
ag8
ag8
ag8
ag8
ag8
ag8
ag8
ag8
ag8
ag8
ag8
ag8
ag8
ag8
ag8
ag8
ag8
ag8
ag8
ag8
ag8
ag8
ag8
ag8
ag8
ag8
ag8
ag8
ag8
ag8
ag8
ag8
ag8
ag8
ag8
ag8
ag8
ag8
ag8
ag8
ag8
ag8
ag8
ag8
ag8
ag8
ag8
ag8
ag8
ag8
ag8
ag8
ag8
ag8
ag8
ag8
ag8
ag8
ag8
ag8
ag8
ag8
ag8
ag8
ag8
ag8
ag8
ag8
ag8
ag8
ag8
ag8
ag8
ag8
ag8
ag8
ag8
ag8
ag8
ag8
ag8
ag8
ag8
ag8
ag8
ag8
ag8
ag8
ag8
ag8
ag8
ag8
ag8
ag8
ag8
ag8
ag8
ag8
ag8
ag8
ag8
ag8
ag8
ag8
ag8
ag8
ag8
ag8
ag8
ag8
ag8
ag8
ag8
ag8
ag8
ag8
ag8
ag8
ag8
ag8
ag8
ag8
ag8
ag8
ag8
ag8
ag8
ag8
ag8
ag8
ag8
ag8
ag8
ag8
ag8
ag8
ag8
ag8
ag8
ag8
ag8
ag8
ag8
ag8
ag8
ag8
ag8
ag8
ag8
ag8
ag8
ag8
ag8
ag8
ag8
ag8
ag8
ag8
ag8
ag8
ag8
ag8
ag8
ag8
ag8
ag8
ag8
ag8
ag8
ag8
ag8
ag8
ag8
ag8
ag8
ag8
ag8
ag8
ag8
ag8
ag8
ag8
ag8
ag8
ag8
ag8
ag8
ag8
ag8
ag8
ag8
ag8
ag8
ag8
ag8
ag8
ag8
ag8
ag8
ag8
ag8
ag8
ag8
ag8
ag8
ag8
ag8
ag8
ag8
ag8
ag8
ag8
ag8
ag8
ag8
ag8
ag8
ag8
ag8
ag8
ag8
ag8
ag8
ag8
ag2
ag4
ag4
ag4
ag2
ag4
ag2
ag2
ag2
ag4
ag2
ag2
ag2
ag4
ag4
ag4
ag4
ag4
ag4
ag4
ag2
ag2
ag4
ag4
ag2
ag4
ag2
ag2
ag2
ag4
ag2
ag4
ag4
ag2
ag4
ag2
ag2
ag4
ag2
ag2
ag4
ag4
ag2
ag2
ag4
ag4
ag2
ag4
ag2
ag2
ag2
ag4
ag4
ag4
ag4
ag4
ag4
ag4
ag4
ag2
ag2
ag2
ag4
ag4
ag2
ag4
ag2
ag2
ag2
ag4
ag4
ag4
ag4
ag4
ag4
ag2
ag2
ag2
ag4
ag4
ag2
ag2
ag2
ag4
ag2
ag4
ag4
ag4
ag2
ag2
ag4
ag2
ag2
ag2
ag4
ag2
ag2
ag2
ag4
ag4
ag2
ag4
ag2
ag4
ag4
ag4
ag2
ag2
ag2
ag2
ag4
ag2
ag4
ag2
ag4
ag2
ag2
ag4
ag4
ag2
ag4
ag4
ag2
ag2
ag2
ag2
ag2
ag2
ag4
ag2
ag4
ag2
ag2
ag4
ag4
ag4
ag2
ag2
ag4
ag4
ag4
ag4
ag4
ag4
ag4
ag4
ag2
ag8
ag4
ag2
ag4
ag2
ag4
ag4
ag2
ag2
ag4
ag4
ag4
ag2
ag2
ag2
ag2
ag2
ag4
ag4
ag2
ag2
ag2
ag4
ag2
ag4
ag2
ag2
ag4
ag4
ag4
ag2
ag2
ag2
ag4
ag2
ag2
ag2
ag4
ag2
ag2
ag2
ag4
ag2
ag4
ag4
ag2
ag2
ag4
ag2
ag2
ag2
ag4
ag4
ag4
ag2
ag4
ag2
ag2
ag4
ag4
ag2
ag2
ag2
ag2
ag4
ag2
ag4
ag4
ag4
ag2
ag2
ag4
ag2
ag4
ag2
ag2
ag4
ag4
ag4
ag2
ag2
ag4
ag2
ag4
ag2
ag2
ag2
ag2
ag4
ag2
ag2
ag2
ag4
ag2
ag2
ag2
ag2
ag2
ag4
ag4
ag2
ag2
ag2
ag4
ag2
ag4
ag4
ag4
ag2
ag4
ag4
ag2
ag4
ag2
ag2
ag4
ag4
ag4
ag2
ag4
ag4
ag4
ag2
ag4
ag2
ag4
ag2
ag2
ag4
ag4
ag2
ag4
ag4
ag2
ag2
ag2
ag4
ag2
ag2
ag4
ag2
ag4
ag2
ag2
ag2
ag2
ag4
ag2
ag4
ag2
ag2
ag4
ag4
ag2
ag2
ag4
ag4
ag4
ag4
ag2
ag4
ag4
ag2
ag4
ag4
ag4
ag2
ag4
ag2
ag4
ag4
ag2
ag2
ag4
ag2
ag4
ag2
ag2
ag4
ag4
ag4
ag2
ag2
ag2
ag4
ag2
ag2
ag4
ag4
ag2
ag2
ag2
ag2
ag2
ag4
ag2
ag2
ag2
ag4
ag4
ag2
ag4
ag4
ag4
ag2
ag2
ag4
ag2
ag2
ag2
ag2
ag2
ag4
ag2
ag4
ag2
ag4
ag2
ag2
ag2
ag2
ag4
ag4
ag4
ag2
ag4
ag2
ag2
ag4
ag2
ag2
ag2
ag4
ag2
ag2
ag4
ag2
ag2
ag2
ag4
ag2
ag2
ag2
ag4
ag4
ag2
ag4
ag2
ag2
ag2
ag2
ag2
ag2
ag4
ag2
ag4
ag2
ag2
ag2
ag2
ag4
ag2
ag2
ag2
ag4
ag2
ag4
ag2
ag4
ag2
ag2
ag4
ag2
ag2
ag4
ag4
ag4
ag2
ag4
ag4
ag2
ag4
ag4
ag4
ag4
ag2
ag2
ag2
ag2
ag2
ag4
ag4
ag2
ag2
ag2
ag2
ag2
ag2
ag4
ag4
ag4
ag4
ag4
ag2
ag4
ag4
ag4
ag4
ag4
ag2
ag4
ag4
ag4
ag2
ag2
ag2
ag2
ag2
ag4
ag2
ag2
ag4
ag2
ag4
ag4
ag2
ag4
ag4
ag4
ag2
ag4
ag4
ag2
ag4
ag2
ag4
ag2
ag4
ag4
ag2
ag4
ag4
ag4
ag4
ag2
ag4
ag4
ag2
ag4
ag2
ag2
ag4
ag2
asI5
(lp9
g4
ag4
ag4
ag4
ag4
ag4
ag4
ag4
ag4
ag4
ag4
ag4
ag4
ag4
ag4
ag4
ag4
ag4
ag4
ag4
ag4
ag4
ag4
ag4
ag4
ag4
ag4
ag4
ag4
ag4
ag4
ag4
ag4
ag4
ag4
ag4
ag4
ag4
ag4
ag4
ag4
ag4
ag4
ag4
ag4
ag4
ag4
ag4
ag4
ag4
ag4
ag4
ag4
ag4
ag4
ag4
ag4
ag4
ag4
ag4
ag4
ag4
ag4
ag4
ag4
ag4
ag4
ag4
ag4
ag4
ag4
ag4
ag4
ag4
ag4
ag4
ag4
ag4
ag4
ag4
ag4
ag4
ag4
ag4
ag4
ag4
ag4
ag4
ag4
ag4
ag4
ag4
ag4
ag4
ag4
ag4
ag4
ag4
ag4
ag4
ag4
ag4
ag4
ag4
ag4
ag4
ag4
ag4
ag4
ag4
ag4
ag4
ag4
ag4
ag4
ag4
ag4
ag4
ag4
ag4
ag4
ag4
ag4
ag4
ag4
ag4
ag4
ag4
ag4
ag4
ag4
ag4
ag4
ag4
ag4
ag4
ag4
ag4
ag4
ag4
ag4
ag4
ag4
ag4
ag4
ag4
ag4
ag4
ag4
ag4
ag4
ag4
ag4
ag4
ag4
ag4
ag4
ag4
ag4
ag4
ag4
ag4
ag4
ag4
ag4
ag4
ag4
ag4
ag4
ag4
ag4
ag4
ag4
ag4
ag4
ag4
ag4
ag4
ag4
ag4
ag4
ag4
ag4
ag4
ag4
ag4
ag4
ag4
ag4
ag4
ag4
ag4
ag4
ag4
ag4
ag4
ag4
ag4
ag4
ag4
ag4
ag4
ag4
ag4
ag4
ag4
ag4
ag4
ag4
ag4
ag4
ag4
ag4
ag4
ag4
ag4
ag4
ag4
ag4
ag4
ag4
ag4
ag4
ag4
ag4
ag4
ag4
ag4
ag4
ag4
ag4
ag4
ag4
ag4
ag4
ag4
ag4
ag4
ag4
ag4
ag4
ag4
ag4
ag4
ag4
ag4
ag4
ag4
ag4
ag4
ag4
ag4
ag4
ag4
ag4
ag4
ag4
ag4
ag4
ag4
ag4
ag4
ag4
ag4
ag4
ag4
ag4
ag4
ag4
ag4
ag4
ag4
ag4
ag4
ag4
ag4
ag4
ag4
ag4
ag4
ag4
ag4
ag4
ag4
ag4
ag4
ag4
ag4
ag4
ag4
ag4
ag4
ag4
ag4
ag4
ag4
ag4
ag4
ag4
ag4
ag4
ag4
ag4
ag4
ag4
ag4
ag4
ag4
ag4
ag4
ag4
ag4
ag4
ag4
ag4
ag4
ag4
ag4
ag4
ag4
ag4
ag4
ag4
ag4
ag4
ag4
ag4
ag4
ag4
ag4
ag4
ag4
ag4
ag4
ag4
ag4
ag4
ag4
ag4
ag4
ag4
ag4
ag4
ag4
ag4
ag4
ag4
ag4
ag4
ag6
ag4
ag4
ag4
ag4
ag4
ag4
ag4
ag4
ag4
ag4
ag4
ag4
ag4
ag4
ag4
ag4
ag4
ag4
ag4
ag4
ag4
ag4
ag4
ag4
ag4
ag4
ag4
ag4
ag4
ag4
ag4
ag4
ag4
ag4
ag4
ag4
ag4
ag4
ag4
ag4
ag4
ag4
ag4
ag4
ag4
ag4
ag4
ag4
ag4
ag4
ag4
ag4
ag4
ag4
ag4
ag4
ag4
ag4
ag4
ag4
ag4
ag4
ag4
ag4
ag4
ag4
ag4
ag4
ag4
ag4
ag4
ag4
ag4
ag4
ag4
ag4
ag4
ag4
ag4
ag4
ag4
ag4
ag4
ag4
ag4
ag4
ag4
ag4
ag4
ag4
ag4
ag4
ag4
ag4
ag4
ag4
ag4
ag4
ag4
ag4
ag4
ag4
ag4
ag4
ag4
ag4
ag4
ag4
ag4
ag4
ag4
ag4
ag4
ag4
ag4
ag4
ag4
ag4
ag4
ag4
ag4
ag4
ag4
ag4
ag4
ag4
ag4
ag4
ag4
ag4
ag4
ag4
ag4
ag4
ag4
ag4
ag4
ag4
ag4
ag4
ag4
ag4
ag4
ag4
ag4
ag4
ag4
ag4
ag4
ag4
ag2
ag2
ag2
ag2
ag2
ag2
ag2
ag2
ag2
ag2
ag2
ag2
ag2
ag2
ag2
ag2
ag2
ag2
ag2
ag2
ag2
ag2
ag2
ag2
ag2
ag2
ag2
ag2
ag2
ag2
ag2
ag2
ag2
ag2
ag2
ag2
ag2
ag2
ag2
ag2
ag2
ag2
ag2
ag2
ag2
ag2
ag2
ag2
ag2
ag2
ag2
ag2
ag2
ag2
ag2
ag2
ag2
ag2
ag2
ag2
ag2
ag2
ag2
ag2
ag2
ag2
ag2
ag2
ag2
ag2
ag2
ag2
ag2
ag2
ag2
ag2
ag2
ag2
ag2
ag2
ag2
ag2
ag2
ag2
ag2
ag2
ag2
ag2
ag2
ag2
ag2
ag2
ag2
ag2
ag2
ag2
ag2
ag2
ag2
ag2
ag2
ag2
ag2
ag2
ag2
ag2
ag2
ag2
ag2
ag2
ag2
ag2
ag2
ag2
ag2
ag2
ag2
ag2
ag2
ag2
ag2
ag2
ag2
ag2
ag2
ag2
ag2
ag2
ag2
ag2
ag2
ag2
ag2
ag2
ag2
ag2
ag2
ag2
ag2
ag2
ag2
ag2
ag2
ag2
ag2
ag2
ag2
ag2
ag2
ag2
ag2
ag2
ag2
ag2
ag2
ag2
ag2
ag2
ag2
ag2
ag2
ag2
ag2
ag2
ag2
ag2
ag2
ag2
ag2
ag2
ag2
ag2
ag2
ag2
ag2
ag2
ag2
ag2
ag2
ag2
ag2
ag2
ag2
ag2
ag2
ag2
ag2
ag2
ag2
ag2
ag2
ag2
ag2
ag2
ag2
ag2
ag2
ag2
ag2
ag2
ag2
ag2
ag2
ag2
ag2
ag2
ag2
ag2
ag2
ag2
ag2
ag2
ag2
ag2
ag2
ag2
ag2
ag2
ag2
ag2
ag2
ag2
ag2
ag2
ag2
ag2
ag2
ag2
ag2
ag2
ag2
ag2
ag2
ag2
ag2
ag2
ag2
ag2
ag2
ag2
ag2
ag2
ag2
ag2
ag2
ag2
ag2
ag2
ag2
ag2
ag2
ag2
ag2
ag2
ag2
ag2
ag2
ag2
ag2
ag2
ag2
ag2
ag2
ag2
ag2
ag2
ag2
ag2
ag2
ag2
ag2
ag2
ag2
ag2
ag2
ag2
ag2
ag2
ag2
ag2
ag2
ag2
ag2
ag2
ag2
ag2
ag2
ag2
ag2
ag2
ag2
ag2
ag2
ag2
ag2
ag2
ag2
ag2
ag2
ag2
ag2
ag2
ag2
ag2
ag2
ag2
ag2
ag2
ag2
ag2
ag2
ag2
ag2
ag2
ag2
ag2
ag2
ag2
ag2
ag2
ag2
ag2
ag2
ag2
ag2
ag2
ag2
ag2
ag2
ag2
ag2
ag2
ag2
ag2
ag2
ag2
ag2
ag2
ag2
ag2
ag2
ag2
ag2
ag2
ag2
ag2
ag2
ag2
ag2
ag2
ag2
ag2
ag2
ag2
ag2
ag2
ag2
ag2
ag2
ag2
ag2
ag2
ag2
ag2
ag2
ag2
ag2
ag2
ag2
ag2
ag2
ag2
ag2
ag2
ag2
ag2
ag2
ag2
ag2
ag2
ag2
ag2
ag2
ag2
ag2
ag2
ag2
ag2
ag2
ag2
ag2
ag2
ag2
ag2
ag2
ag2
ag2
ag2
ag2
ag2
ag2
ag2
ag2
ag2
ag2
ag2
ag2
ag2
ag2
ag2
ag2
ag2
ag2
ag2
ag2
ag2
ag2
ag2
ag2
ag2
ag2
ag2
ag2
ag2
ag2
ag2
ag2
ag2
ag2
ag2
ag2
ag2
ag2
ag2
ag2
ag2
ag2
ag2
ag2
ag2
ag2
ag2
ag2
ag2
ag2
ag2
ag2
ag2
ag2
ag2
ag2
ag2
ag2
ag2
ag2
ag2
ag2
ag2
ag2
ag2
ag2
ag2
ag2
ag2
ag2
ag2
ag2
ag2
ag2
ag2
ag2
ag2
ag2
ag2
ag2
ag2
ag2
ag2
ag2
ag2
ag2
ag2
ag2
ag2
ag2
ag2
ag2
ag2
ag2
ag2
ag2
ag2
ag2
ag2
ag2
ag2
ag2
ag2
ag2
ag2
aS'#80b1d3'
p10
ag10
ag6
ag10
ag10
ag6
ag10
ag8
ag10
ag6
ag8
ag8
ag8
ag6
ag6
ag10
ag6
ag10
ag6
ag6
ag10
ag10
ag6
ag6
ag8
ag6
ag10
ag10
ag10
ag6
ag10
ag6
ag6
ag8
ag6
ag10
ag8
ag10
ag10
ag8
ag8
ag6
ag8
ag10
ag6
ag6
ag8
ag6
ag10
ag8
ag8
ag6
ag6
ag6
ag6
ag6
ag6
ag6
ag6
ag10
ag8
ag8
ag6
ag6
ag8
ag6
ag8
ag10
ag10
ag6
ag6
ag6
ag6
ag10
ag6
ag8
ag10
ag10
ag6
ag6
ag10
ag8
ag8
ag6
ag10
ag8
ag6
ag10
ag8
ag8
ag6
ag8
ag8
ag8
ag10
ag8
ag10
ag8
ag6
ag6
ag8
ag8
ag8
ag6
ag10
ag10
ag8
ag8
ag10
ag8
ag10
ag8
ag10
ag10
ag6
ag10
ag10
ag6
ag8
ag10
ag6
ag6
ag10
ag8
ag8
ag8
ag8
ag8
ag6
ag10
ag10
ag10
ag10
ag6
ag10
ag6
ag10
ag8
ag6
ag10
ag6
ag10
ag10
ag6
ag8
ag6
ag8
ag2
ag6
ag8
ag6
ag8
ag10
ag6
ag10
ag10
ag6
ag6
ag6
ag10
ag10
ag10
ag8
ag10
ag6
ag6
ag8
ag8
ag10
ag6
ag8
ag6
ag10
ag8
ag6
ag6
ag6
ag8
ag8
ag10
ag6
ag8
ag10
ag10
ag8
ag8
ag8
ag10
ag6
ag8
ag6
ag8
ag8
ag10
ag6
ag8
ag10
ag8
ag6
ag10
ag6
ag10
ag10
ag10
ag10
ag10
ag8
ag8
ag8
ag8
ag8
ag6
ag10
ag6
ag6
ag6
ag8
ag8
ag6
ag8
ag6
ag8
ag8
ag6
ag6
ag6
ag8
ag10
ag6
ag10
ag6
ag8
ag8
ag10
ag8
ag6
ag10
ag8
ag8
ag6
ag10
ag10
ag10
ag10
ag10
ag6
ag6
ag8
ag10
ag10
ag6
ag8
ag6
ag6
ag10
ag10
ag6
ag6
ag8
ag10
ag10
ag8
ag6
ag6
ag10
ag10
ag8
ag6
ag6
ag10
ag6
ag8
ag6
ag8
ag10
ag6
ag6
ag8
ag6
ag6
ag8
ag8
ag8
ag6
ag8
ag10
ag6
ag8
ag6
ag10
ag10
ag10
ag8
ag6
ag8
ag6
ag10
ag10
ag6
ag10
ag10
ag8
ag6
ag6
ag6
ag6
ag10
ag6
ag6
ag10
ag6
ag6
ag10
ag10
ag6
ag10
ag6
ag10
ag8
ag10
ag6
ag10
ag6
ag8
ag10
ag6
ag6
ag6
ag10
ag8
ag8
ag6
ag8
ag10
ag6
ag10
ag10
ag10
ag10
ag8
ag10
ag10
ag8
ag8
ag8
ag6
ag10
ag8
ag6
ag6
ag6
ag10
ag10
ag6
ag10
ag10
ag10
ag8
ag10
ag6
ag10
ag6
ag8
ag6
ag10
ag8
ag10
ag10
ag6
ag6
ag6
ag8
ag6
ag8
ag10
ag6
ag8
ag8
ag10
ag6
ag10
ag8
ag6
ag10
ag10
ag10
ag8
ag8
ag10
ag10
ag6
ag6
ag10
ag6
ag8
ag8
ag10
ag10
ag10
ag10
ag6
ag8
ag6
ag10
ag8
ag10
ag8
ag6
ag8
ag8
ag8
ag10
ag8
ag6
ag8
ag6
ag8
ag10
ag6
ag10
ag8
ag6
ag6
ag6
ag8
ag6
ag6
ag8
ag6
ag6
ag8
ag6
ag10
ag10
ag10
ag10
ag8
ag6
ag6
ag8
ag10
ag8
ag10
ag10
ag8
ag6
ag6
ag10
ag6
ag6
ag8
ag6
ag6
ag6
ag6
ag6
ag10
ag6
ag6
ag6
ag8
ag10
ag8
ag10
ag10
ag6
ag8
ag10
ag6
ag10
ag6
ag6
ag10
ag6
ag6
ag6
ag10
ag6
ag6
ag8
ag6
ag8
ag6
ag8
ag6
ag6
ag8
ag8
ag10
ag6
ag6
ag10
ag10
ag10
ag8
ag6
ag10
ag10
ag10
ag8
asI6
(lp11
g4
ag4
ag4
ag4
ag4
ag4
ag4
ag4
ag4
ag4
ag4
ag4
ag4
ag4
ag4
ag4
ag4
ag4
ag4
ag4
ag4
ag4
ag4
ag4
ag4
ag4
ag4
ag4
ag4
ag4
ag4
ag4
ag4
ag4
ag4
ag4
ag4
ag4
ag4
ag4
ag4
ag4
ag4
ag4
ag4
ag4
ag4
ag4
ag4
ag4
ag4
ag4
ag4
ag4
ag4
ag4
ag4
ag4
ag4
ag4
ag4
ag4
ag4
ag4
ag4
ag4
ag4
ag4
ag4
ag4
ag4
ag4
ag4
ag4
ag4
ag4
ag4
ag4
ag4
ag4
ag4
ag4
ag4
ag4
ag4
ag4
ag4
ag4
ag4
ag4
ag4
ag4
ag4
ag4
ag4
ag4
ag4
ag4
ag4
ag4
ag4
ag4
ag4
ag4
ag4
ag4
ag4
ag4
ag4
ag4
ag4
ag4
ag4
ag4
ag4
ag4
ag4
ag4
ag4
ag4
ag4
ag4
ag4
ag4
ag4
ag4
ag4
ag4
ag4
ag4
ag4
ag4
ag4
ag4
ag4
ag4
ag4
ag4
ag4
ag4
ag4
ag4
ag4
ag4
ag4
ag4
ag4
ag4
ag4
ag4
ag4
ag4
ag4
ag4
ag4
ag4
ag4
ag4
ag4
ag4
ag4
ag4
ag4
ag4
ag4
ag4
ag4
ag4
ag4
ag4
ag4
ag4
ag4
ag4
ag4
ag4
ag4
ag4
ag4
ag4
ag4
ag4
ag4
ag4
ag4
ag4
ag4
ag4
ag4
ag4
ag4
ag4
ag4
ag4
ag4
ag4
ag4
ag4
ag4
ag4
ag4
ag4
ag4
ag4
ag4
ag4
ag4
ag4
ag4
ag4
ag4
ag4
ag4
ag4
ag4
ag4
ag4
ag4
ag4
ag4
ag4
ag4
ag4
ag4
ag4
ag4
ag4
ag4
ag4
ag4
ag4
ag4
ag4
ag4
ag4
ag4
ag4
ag4
ag4
ag4
ag4
ag4
ag4
ag4
ag4
ag4
ag4
ag4
ag4
ag4
ag4
ag4
ag4
ag4
ag4
ag4
ag4
ag4
ag4
ag4
ag4
ag4
ag4
ag4
ag4
ag4
ag4
ag4
ag4
ag4
ag4
ag4
ag4
ag4
ag4
ag4
ag4
ag4
ag4
ag4
ag4
ag4
ag4
ag4
ag4
ag4
ag4
ag4
ag4
ag4
ag4
ag4
ag4
ag4
ag4
ag4
ag4
ag4
ag4
ag4
ag4
ag4
ag4
ag4
ag4
ag4
ag4
ag4
ag4
ag4
ag4
ag4
ag4
ag4
ag4
ag4
ag4
ag4
ag4
ag4
ag4
ag4
ag4
ag4
ag4
ag4
ag4
ag4
ag4
ag4
ag4
ag4
ag4
ag4
ag4
ag4
ag4
ag4
ag4
ag4
ag4
ag4
ag4
ag4
ag4
ag4
ag4
ag4
ag4
ag6
ag4
ag4
ag4
ag4
ag4
ag4
ag4
ag4
ag4
ag4
ag4
ag4
ag4
ag4
ag4
ag4
ag4
ag4
ag4
ag4
ag4
ag4
ag4
ag4
ag4
ag4
ag4
ag4
ag4
ag4
ag4
ag4
ag4
ag4
ag4
ag4
ag4
ag4
ag4
ag4
ag4
ag4
ag4
ag4
ag4
ag4
ag4
ag4
ag4
ag4
ag4
ag4
ag4
ag4
ag4
ag4
ag4
ag4
ag4
ag4
ag4
ag4
ag4
ag4
ag4
ag4
ag4
ag4
ag4
ag4
ag4
ag4
ag4
ag4
ag4
ag4
ag4
ag4
ag4
ag4
ag4
ag4
ag4
ag4
ag4
ag4
ag4
ag4
ag4
ag4
ag4
ag4
ag4
ag4
ag4
ag4
ag4
ag4
ag4
ag4
ag4
ag4
ag4
ag4
ag4
ag4
ag4
ag4
ag4
ag4
ag4
ag4
ag4
ag4
ag4
ag4
ag4
ag4
ag4
ag4
ag4
ag4
ag4
ag4
ag4
ag4
ag4
ag4
ag4
ag4
ag4
ag4
ag4
ag4
ag4
ag4
ag4
ag4
ag4
ag4
ag4
ag4
ag4
ag4
ag4
ag4
ag4
ag4
ag4
ag4
ag8
ag8
ag8
ag8
ag8
ag8
ag8
ag8
ag8
ag8
ag8
ag8
ag8
ag8
ag8
ag8
ag8
ag8
ag8
ag8
ag8
ag8
ag8
ag8
ag8
ag8
ag8
ag8
ag8
ag8
ag8
ag8
ag8
ag8
ag8
ag8
ag8
ag8
ag8
ag8
ag8
ag8
ag8
ag8
ag8
ag8
ag8
ag8
ag8
ag8
ag8
ag8
ag8
ag8
ag8
ag8
ag8
ag8
ag8
ag8
ag8
ag8
ag8
ag8
ag8
ag8
ag8
ag8
ag8
ag8
ag8
ag8
ag8
ag8
ag8
ag8
ag8
ag8
ag8
ag8
ag8
ag8
ag8
ag8
ag8
ag8
ag8
ag8
ag8
ag8
ag8
ag8
ag8
ag8
ag8
ag8
ag8
ag8
ag8
ag8
ag8
ag8
ag8
ag8
ag8
ag8
ag8
ag8
ag8
ag8
ag8
ag8
ag8
ag8
ag8
ag8
ag8
ag8
ag8
ag8
ag8
ag8
ag8
ag8
ag8
ag8
ag8
ag8
ag8
ag8
ag8
ag8
ag8
ag8
ag8
ag8
ag8
ag8
ag8
ag8
ag8
ag8
ag8
ag8
ag8
ag8
ag8
ag8
ag8
ag8
ag8
ag8
ag8
ag8
ag8
ag8
ag8
ag8
ag8
ag8
ag8
ag8
ag8
ag8
ag8
ag8
ag8
ag8
ag8
ag8
ag8
ag8
ag8
ag8
ag8
ag8
ag8
ag8
ag8
ag8
ag8
ag8
ag8
ag8
ag8
ag8
ag8
ag8
ag8
ag8
ag8
ag8
ag8
ag8
ag8
ag8
ag8
ag8
ag8
ag8
ag8
ag8
ag8
ag8
ag8
ag8
ag8
ag8
ag8
ag8
ag8
ag8
ag8
ag8
ag8
ag8
ag8
ag8
ag8
ag8
ag8
ag8
ag8
ag8
ag8
ag8
ag8
ag8
ag8
ag8
ag8
ag8
ag8
ag8
ag8
ag8
ag8
ag8
ag8
ag8
ag8
ag8
ag8
ag8
ag8
ag8
ag8
ag8
ag8
ag8
ag8
ag8
ag8
ag8
ag8
ag8
ag8
ag8
ag8
ag8
ag8
ag8
ag8
ag8
ag8
ag8
ag8
ag8
ag8
ag8
ag8
ag8
ag8
ag8
ag8
ag8
ag8
ag8
ag8
ag8
ag8
ag8
ag8
ag8
ag8
ag8
ag8
ag8
ag8
ag8
ag8
ag8
ag8
ag8
ag8
ag8
ag8
ag8
ag8
ag8
ag8
ag8
ag8
ag8
ag8
ag8
ag8
ag8
ag8
ag8
ag8
ag8
ag8
ag8
ag8
ag8
ag8
ag8
ag8
ag8
ag8
ag8
ag8
ag8
ag8
ag8
ag8
ag8
ag8
ag8
ag8
ag8
ag8
ag8
ag8
ag8
ag8
ag8
ag8
ag8
ag8
ag8
ag8
ag8
ag8
ag8
ag8
ag8
ag8
ag8
ag8
ag8
ag8
ag8
ag8
ag8
ag8
ag8
ag8
ag8
ag8
ag8
ag8
ag8
ag8
ag8
ag8
ag8
ag8
ag8
ag8
ag8
ag8
ag8
ag8
ag8
ag8
ag8
ag8
ag8
ag8
ag8
ag8
ag8
ag8
ag8
ag8
ag8
ag8
ag8
ag8
ag8
ag8
ag8
ag8
ag8
ag8
ag8
ag8
ag8
ag8
ag8
ag8
ag8
ag8
ag8
ag8
ag8
ag8
ag8
ag8
ag8
ag8
ag8
ag8
ag8
ag8
ag8
ag8
ag8
ag8
ag8
ag8
ag8
ag8
ag8
ag8
ag8
ag8
ag8
ag8
ag8
ag8
ag8
ag8
ag8
ag8
ag8
ag8
ag8
ag8
ag8
ag8
ag8
ag8
ag8
ag8
ag8
ag8
ag8
ag8
ag8
ag8
ag8
ag8
ag8
ag8
ag8
ag8
ag8
ag8
ag8
ag8
ag8
ag8
ag8
ag8
ag8
ag8
ag8
ag8
ag8
ag8
ag8
ag8
ag8
ag8
ag8
ag8
ag8
ag8
ag8
ag8
ag8
ag8
ag8
ag8
ag8
ag8
ag8
ag8
ag8
ag8
ag8
ag8
ag8
ag8
ag8
ag8
ag8
aS'#fdb462'
p12
ag10
ag6
ag10
ag10
ag6
ag12
ag2
ag10
ag6
ag2
ag2
ag12
ag6
ag2
ag10
ag6
ag10
ag6
ag6
ag12
ag10
ag6
ag6
ag12
ag10
ag12
ag10
ag10
ag6
ag6
ag10
ag6
ag2
ag6
ag12
ag12
ag10
ag12
ag2
ag2
ag6
ag12
ag10
ag6
ag6
ag12
ag6
ag12
ag2
ag2
ag6
ag6
ag6
ag6
ag6
ag6
ag6
ag6
ag10
ag2
ag2
ag6
ag6
ag2
ag6
ag2
ag12
ag10
ag6
ag6
ag6
ag6
ag10
ag2
ag2
ag12
ag12
ag6
ag6
ag12
ag2
ag2
ag6
ag10
ag2
ag10
ag10
ag12
ag12
ag6
ag2
ag12
ag2
ag10
ag2
ag10
ag2
ag6
ag2
ag2
ag2
ag12
ag6
ag10
ag10
ag12
ag12
ag10
ag12
ag10
ag2
ag10
ag10
ag6
ag12
ag12
ag6
ag2
ag10
ag2
ag6
ag10
ag2
ag2
ag2
ag12
ag2
ag6
ag12
ag10
ag12
ag10
ag6
ag10
ag6
ag10
ag2
ag6
ag10
ag6
ag10
ag10
ag10
ag2
ag6
ag2
ag8
ag6
ag2
ag6
ag2
ag10
ag6
ag12
ag10
ag6
ag6
ag2
ag12
ag12
ag12
ag12
ag10
ag6
ag6
ag12
ag2
ag10
ag6
ag2
ag6
ag12
ag2
ag6
ag6
ag6
ag12
ag2
ag10
ag2
ag12
ag12
ag10
ag2
ag2
ag2
ag10
ag6
ag12
ag6
ag2
ag2
ag10
ag6
ag12
ag12
ag2
ag6
ag10
ag2
ag10
ag10
ag10
ag12
ag10
ag2
ag2
ag2
ag12
ag2
ag6
ag10
ag6
ag2
ag6
ag2
ag2
ag6
ag2
ag10
ag2
ag2
ag6
ag6
ag6
ag12
ag10
ag6
ag10
ag6
ag2
ag12
ag12
ag12
ag6
ag10
ag12
ag2
ag6
ag12
ag10
ag10
ag12
ag10
ag6
ag2
ag12
ag10
ag10
ag6
ag12
ag6
ag6
ag10
ag12
ag6
ag6
ag2
ag10
ag12
ag2
ag6
ag6
ag10
ag12
ag2
ag6
ag6
ag10
ag6
ag2
ag6
ag12
ag12
ag6
ag6
ag2
ag6
ag10
ag12
ag2
ag2
ag6
ag2
ag10
ag6
ag2
ag6
ag10
ag6
ag10
ag2
ag6
ag2
ag6
ag12
ag12
ag6
ag10
ag10
ag12
ag10
ag6
ag6
ag6
ag12
ag6
ag6
ag12
ag6
ag6
ag10
ag12
ag10
ag10
ag6
ag10
ag2
ag12
ag6
ag12
ag6
ag2
ag10
ag6
ag6
ag6
ag10
ag2
ag2
ag6
ag2
ag12
ag6
ag10
ag10
ag10
ag12
ag12
ag12
ag10
ag2
ag12
ag12
ag6
ag10
ag12
ag6
ag6
ag6
ag12
ag12
ag6
ag10
ag10
ag12
ag2
ag10
ag6
ag10
ag6
ag12
ag6
ag10
ag12
ag10
ag12
ag6
ag6
ag6
ag2
ag6
ag2
ag12
ag6
ag12
ag2
ag10
ag6
ag12
ag2
ag6
ag12
ag10
ag12
ag2
ag12
ag12
ag12
ag6
ag6
ag12
ag6
ag12
ag12
ag10
ag12
ag12
ag10
ag6
ag2
ag6
ag10
ag2
ag10
ag2
ag10
ag2
ag2
ag12
ag10
ag12
ag6
ag12
ag6
ag12
ag12
ag6
ag12
ag2
ag6
ag2
ag6
ag2
ag6
ag6
ag2
ag6
ag6
ag2
ag6
ag12
ag12
ag10
ag12
ag2
ag6
ag6
ag12
ag10
ag2
ag12
ag12
ag2
ag6
ag6
ag10
ag2
ag6
ag2
ag10
ag6
ag2
ag6
ag6
ag12
ag6
ag6
ag6
ag2
ag12
ag12
ag10
ag12
ag6
ag12
ag12
ag6
ag12
ag6
ag6
ag10
ag6
ag6
ag6
ag12
ag2
ag6
ag12
ag6
ag2
ag6
ag2
ag6
ag6
ag2
ag2
ag10
ag6
ag6
ag12
ag10
ag10
ag2
ag6
ag10
ag10
ag10
ag2
asI7
(lp13
g2
aS'#b3de69'
p14
ag2
ag2
ag14
ag10
ag14
ag10
ag14
ag14
ag10
ag2
ag2
ag2
ag2
ag14
ag14
ag14
ag10
ag10
ag14
ag14
ag10
ag10
ag2
ag10
ag10
ag2
ag10
ag14
ag2
ag10
ag14
ag2
ag2
ag2
ag10
ag2
ag14
ag10
ag14
ag10
ag2
ag10
ag14
ag2
ag10
ag10
ag2
ag14
ag2
ag10
ag14
ag10
ag10
ag10
ag14
ag14
ag14
ag2
ag10
ag10
ag10
ag10
ag14
ag10
ag2
ag2
ag14
ag14
ag14
ag2
ag10
ag10
ag2
ag14
ag14
ag2
ag2
ag2
ag2
ag10
ag10
ag10
ag14
ag10
ag10
ag2
ag2
ag10
ag10
ag14
ag2
ag14
ag10
ag10
ag2
ag2
ag10
ag2
ag2
ag2
ag10
ag14
ag10
ag14
ag10
ag10
ag2
ag10
ag2
ag10
ag14
ag14
ag2
ag10
ag14
ag10
ag2
ag2
ag10
ag14
ag2
ag2
ag2
ag2
ag10
ag2
ag2
ag10
ag10
ag14
ag10
ag10
ag2
ag2
ag14
ag2
ag10
ag2
ag10
ag14
ag2
ag14
ag10
ag14
ag14
ag10
ag14
ag14
ag10
ag14
ag10
ag2
ag2
ag14
ag14
ag2
ag10
ag2
ag14
ag14
ag10
ag10
ag10
ag2
ag10
ag2
ag2
ag14
ag2
ag14
ag10
ag2
ag10
ag14
ag14
ag14
ag14
ag14
ag2
ag2
ag14
ag14
ag10
ag10
ag10
ag14
ag10
ag14
ag14
ag14
ag10
ag14
ag10
ag10
ag10
ag2
ag2
ag2
ag14
ag14
ag14
ag14
ag2
ag2
ag10
ag2
ag10
ag14
ag2
ag10
ag14
ag14
ag2
ag2
ag10
ag10
ag14
ag14
ag14
ag14
ag2
ag10
ag10
ag2
ag14
ag2
ag10
ag2
ag10
ag14
ag2
ag2
ag10
ag14
ag14
ag14
ag2
ag14
ag10
ag2
ag2
ag10
ag10
ag2
ag14
ag10
ag14
ag2
ag10
ag10
ag2
ag2
ag14
ag10
ag2
ag2
ag14
ag10
ag10
ag2
ag2
ag10
ag10
ag2
ag10
ag14
ag10
ag14
ag2
ag2
ag10
ag14
ag2
ag14
ag14
ag10
ag10
ag10
ag14
ag10
ag2
ag10
ag10
ag10
ag14
ag10
ag14
ag2
ag14
ag10
ag2
ag14
ag10
ag10
ag2
ag14
ag10
ag10
ag2
ag14
ag2
ag14
ag14
ag2
ag2
ag10
ag10
ag14
ag10
ag10
ag14
ag2
ag10
ag10
ag2
ag14
ag10
ag2
ag10
ag14
ag14
ag10
ag2
ag2
ag2
ag2
ag10
ag10
ag10
ag14
ag14
ag2
ag10
ag2
ag14
ag2
ag14
ag2
ag10
ag14
ag10
ag10
ag14
ag10
ag10
ag2
ag10
ag4
ag2
ag10
ag14
ag2
ag14
ag10
ag2
ag2
ag10
ag14
ag2
ag14
ag14
ag10
ag2
ag10
ag2
ag2
ag14
ag2
ag14
ag14
ag10
ag10
ag2
ag14
ag2
ag2
ag2
ag10
ag2
ag2
ag2
ag2
ag14
ag14
ag10
ag10
ag10
ag2
ag2
ag2
ag10
ag2
ag10
ag10
ag10
ag14
ag10
ag2
ag2
ag14
ag2
ag14
ag2
ag2
ag2
ag2
ag2
ag10
ag2
ag2
ag2
ag10
ag14
ag14
ag10
ag14
ag2
ag10
ag2
ag10
ag14
ag10
ag2
ag2
ag2
ag2
ag2
ag14
ag10
ag14
ag2
ag2
ag10
ag2
ag14
ag2
ag14
ag2
ag14
ag2
ag10
ag14
ag2
ag2
ag14
ag2
ag2
ag2
ag2
ag10
ag2
ag2
ag10
ag14
ag2
ag10
ag14
ag10
ag10
ag14
ag2
ag14
ag10
ag2
ag14
ag14
ag10
ag2
ag2
ag2
ag2
ag10
ag14
ag10
ag10
ag14
ag2
ag10
ag10
ag14
ag2
ag10
ag14
ag14
ag14
ag14
ag14
ag10
ag14
ag2
ag14
ag14
ag2
ag2
ag14
ag14
ag14
ag10
ag8
ag8
ag8
ag8
ag8
ag8
ag8
ag8
ag8
ag8
ag8
ag8
ag8
ag8
ag8
ag8
ag8
ag8
ag8
ag8
ag8
ag8
ag8
ag8
ag8
ag8
ag8
ag8
ag8
ag8
ag8
ag8
ag8
ag8
ag8
ag8
ag8
ag8
ag8
ag8
ag8
ag8
ag8
ag8
ag8
ag8
ag8
ag8
ag8
ag8
ag8
ag8
ag8
ag8
ag8
ag8
ag8
ag8
ag8
ag8
ag8
ag8
ag8
ag8
ag8
ag8
ag8
ag8
ag8
ag8
ag8
ag8
ag8
ag8
ag8
ag8
ag8
ag8
ag8
ag8
ag8
ag8
ag8
ag8
ag8
ag8
ag8
ag8
ag8
ag8
ag8
ag8
ag8
ag8
ag8
ag8
ag8
ag8
ag8
ag8
ag8
ag8
ag8
ag8
ag8
ag8
ag8
ag8
ag8
ag8
ag8
ag8
ag8
ag8
ag8
ag8
ag8
ag8
ag8
ag8
ag8
ag8
ag8
ag8
ag8
ag8
ag8
ag8
ag8
ag8
ag8
ag8
ag8
ag8
ag8
ag8
ag8
ag8
ag8
ag8
ag8
ag8
ag8
ag8
ag8
ag8
ag8
ag8
ag8
ag8
ag8
ag8
ag8
ag8
ag8
ag8
ag8
ag8
ag8
ag8
ag8
ag8
ag8
ag8
ag8
ag8
ag8
ag8
ag8
ag8
ag8
ag8
ag8
ag8
ag8
ag8
ag8
ag8
ag8
ag8
ag8
ag8
ag8
ag8
ag8
ag8
ag8
ag8
ag8
ag8
ag8
ag8
ag8
ag8
ag8
ag8
ag8
ag8
ag8
ag8
ag8
ag8
ag8
ag8
ag8
ag14
ag8
ag8
ag8
ag8
ag8
ag8
ag8
ag8
ag8
ag8
ag8
ag8
ag8
ag8
ag8
ag8
ag8
ag8
ag8
ag8
ag8
ag8
ag8
ag8
ag8
ag8
ag8
ag8
ag8
ag8
ag8
ag8
ag8
ag8
ag8
ag8
ag8
ag8
ag8
ag8
ag8
ag8
ag8
ag8
ag8
ag8
ag8
ag8
ag8
ag8
ag8
ag8
ag8
ag8
ag8
ag8
ag8
ag8
ag8
ag8
ag8
ag8
ag8
ag8
ag8
ag8
ag8
ag8
ag8
ag8
ag8
ag8
ag8
ag8
ag8
ag8
ag8
ag8
ag8
ag8
ag8
ag8
ag8
ag8
ag8
ag8
ag8
ag8
ag8
ag8
ag8
ag8
ag8
ag8
ag8
ag8
ag8
ag8
ag8
ag8
ag8
ag8
ag8
ag8
ag8
ag8
ag8
ag8
ag8
ag8
ag8
ag8
ag8
ag8
ag8
ag8
ag8
ag8
ag8
ag8
ag8
ag8
ag8
ag8
ag8
ag8
ag8
ag8
ag8
ag8
ag8
ag8
ag8
ag8
ag8
ag8
ag8
ag8
ag8
ag8
ag8
ag8
ag8
ag8
ag8
ag8
ag8
ag8
ag8
ag8
ag8
ag8
ag8
ag8
ag8
ag8
ag8
ag8
ag8
ag8
ag8
ag8
ag8
ag8
ag8
ag8
ag8
ag8
ag8
ag8
ag8
ag8
ag8
ag8
ag8
ag8
ag8
ag8
ag8
ag8
ag8
ag8
ag8
ag8
ag8
ag8
ag8
ag8
ag8
ag8
ag8
ag8
ag8
ag8
ag8
ag8
ag8
ag8
ag8
ag8
ag8
ag8
ag8
ag8
ag8
ag8
ag8
ag8
ag8
ag8
ag8
ag8
ag8
ag8
ag8
ag8
ag8
ag8
ag8
ag14
ag8
ag8
ag8
ag8
ag8
ag8
ag8
ag8
ag8
ag8
ag8
ag8
ag8
ag8
ag8
ag8
ag8
ag8
ag8
ag8
ag8
ag8
ag8
ag8
ag8
ag8
ag8
ag8
ag8
ag8
ag8
ag8
ag8
ag8
ag8
ag8
ag8
ag8
ag8
ag8
ag8
ag8
ag8
ag8
ag8
ag8
ag8
ag8
ag8
ag8
ag8
ag14
ag8
ag8
ag8
ag8
ag8
ag8
ag8
ag8
ag8
ag8
ag8
ag8
ag8
ag8
ag8
ag8
ag8
ag8
ag8
ag8
ag8
ag8
ag6
ag6
ag4
ag6
ag6
ag4
ag6
ag12
ag6
ag4
ag12
ag12
ag12
ag4
ag4
ag6
ag4
ag6
ag4
ag4
ag6
ag6
ag4
ag4
ag12
ag4
ag6
ag6
ag6
ag4
ag6
ag4
ag4
ag12
ag4
ag6
ag12
ag6
ag6
ag12
ag12
ag4
ag12
ag6
ag4
ag4
ag12
ag4
ag6
ag12
ag12
ag4
ag4
ag4
ag4
ag4
ag4
ag4
ag4
ag6
ag12
ag12
ag4
ag4
ag12
ag4
ag12
ag6
ag6
ag4
ag4
ag4
ag4
ag6
ag4
ag12
ag6
ag6
ag4
ag4
ag6
ag12
ag12
ag4
ag6
ag12
ag4
ag6
ag12
ag12
ag4
ag12
ag12
ag12
ag6
ag12
ag6
ag12
ag4
ag4
ag12
ag12
ag12
ag4
ag6
ag6
ag12
ag12
ag6
ag12
ag6
ag12
ag6
ag6
ag4
ag6
ag6
ag4
ag12
ag6
ag4
ag4
ag6
ag12
ag12
ag12
ag12
ag12
ag4
ag6
ag6
ag6
ag6
ag4
ag6
ag4
ag6
ag12
ag4
ag6
ag4
ag6
ag6
ag4
ag12
ag4
ag12
ag8
ag4
ag12
ag4
ag12
ag6
ag4
ag6
ag6
ag4
ag4
ag4
ag6
ag6
ag6
ag12
ag6
ag4
ag4
ag12
ag12
ag6
ag4
ag12
ag4
ag6
ag12
ag4
ag4
ag4
ag12
ag12
ag6
ag4
ag12
ag6
ag6
ag12
ag12
ag12
ag6
ag4
ag12
ag4
ag12
ag12
ag6
ag4
ag12
ag6
ag12
ag4
ag6
ag4
ag6
ag6
ag6
ag6
ag6
ag12
ag12
ag12
ag12
ag12
ag4
ag6
ag4
ag4
ag4
ag12
ag12
ag4
ag12
ag4
ag12
ag12
ag4
ag4
ag4
ag12
ag6
ag4
ag6
ag4
ag12
ag12
ag6
ag12
ag4
ag6
ag12
ag12
ag4
ag6
ag6
ag6
ag6
ag6
ag4
ag4
ag12
ag6
ag6
ag4
ag12
ag4
ag4
ag6
ag6
ag4
ag4
ag12
ag6
ag6
ag12
ag4
ag4
ag6
ag6
ag12
ag4
ag4
ag6
ag4
ag12
ag4
ag12
ag6
ag4
ag4
ag12
ag4
ag4
ag12
ag12
ag12
ag4
ag12
ag6
ag4
ag12
ag4
ag6
ag6
ag6
ag12
ag4
ag12
ag4
ag6
ag6
ag4
ag6
ag6
ag12
ag4
ag4
ag4
ag4
ag6
ag4
ag4
ag6
ag4
ag4
ag6
ag6
ag4
ag6
ag4
ag6
ag12
ag6
ag4
ag6
ag4
ag12
ag6
ag4
ag4
ag4
ag6
ag12
ag12
ag4
ag12
ag6
ag4
ag6
ag6
ag6
ag6
ag12
ag6
ag6
ag12
ag12
ag12
ag4
ag6
ag12
ag4
ag4
ag4
ag6
ag6
ag4
ag6
ag6
ag6
ag12
ag6
ag4
ag6
ag4
ag12
ag4
ag6
ag12
ag6
ag6
ag4
ag4
ag4
ag12
ag4
ag12
ag6
ag4
ag12
ag12
ag6
ag4
ag6
ag12
ag4
ag6
ag6
ag6
ag12
ag12
ag6
ag6
ag4
ag4
ag6
ag4
ag12
ag12
ag6
ag6
ag6
ag6
ag4
ag12
ag4
ag6
ag12
ag6
ag12
ag4
ag12
ag12
ag12
ag6
ag12
ag4
ag12
ag4
ag12
ag6
ag4
ag6
ag12
ag4
ag4
ag4
ag12
ag4
ag4
ag12
ag4
ag4
ag12
ag4
ag6
ag6
ag6
ag6
ag12
ag4
ag4
ag12
ag6
ag12
ag6
ag6
ag12
ag4
ag4
ag6
ag4
ag4
ag12
ag4
ag4
ag4
ag4
ag4
ag6
ag4
ag4
ag4
ag12
ag6
ag12
ag6
ag6
ag4
ag12
ag6
ag4
ag6
ag4
ag4
ag6
ag4
ag4
ag4
ag6
ag4
ag4
ag12
ag4
ag12
ag4
ag12
ag4
ag4
ag12
ag12
ag6
ag4
ag4
ag6
ag6
ag6
ag12
ag4
ag6
ag6
ag6
ag12
asI8
(lp15
g12
aS'#fccde5'
p16
ag12
ag12
ag12
ag8
ag16
ag8
ag16
ag16
ag8
ag12
ag12
ag12
ag12
ag16
ag16
ag16
ag8
ag8
ag12
ag16
ag8
ag8
ag12
ag8
ag8
ag12
ag8
ag16
ag12
ag8
ag16
ag12
ag8
ag12
ag8
ag12
ag16
ag8
ag16
ag8
ag12
ag8
ag16
ag12
ag8
ag8
ag12
ag16
ag12
ag8
ag16
ag8
ag8
ag8
ag16
ag16
ag16
ag12
ag8
ag8
ag16
ag8
ag16
ag8
ag12
ag12
ag16
ag16
ag16
ag12
ag8
ag8
ag12
ag16
ag16
ag12
ag12
ag12
ag12
ag8
ag8
ag8
ag16
ag8
ag8
ag12
ag12
ag8
ag16
ag16
ag12
ag16
ag8
ag8
ag12
ag12
ag8
ag12
ag12
ag12
ag8
ag16
ag8
ag16
ag8
ag8
ag12
ag8
ag12
ag8
ag16
ag16
ag12
ag8
ag16
ag8
ag12
ag12
ag8
ag16
ag12
ag12
ag12
ag12
ag8
ag12
ag12
ag8
ag8
ag16
ag8
ag8
ag12
ag12
ag16
ag12
ag8
ag12
ag8
ag16
ag12
ag16
ag8
ag16
ag16
ag8
ag16
ag16
ag16
ag16
ag8
ag12
ag12
ag16
ag16
ag12
ag8
ag12
ag16
ag16
ag8
ag8
ag8
ag12
ag8
ag12
ag12
ag16
ag12
ag16
ag8
ag12
ag8
ag16
ag16
ag16
ag12
ag16
ag12
ag12
ag16
ag16
ag8
ag8
ag8
ag16
ag8
ag16
ag16
ag16
ag8
ag16
ag8
ag8
ag8
ag12
ag12
ag12
ag16
ag16
ag16
ag16
ag12
ag12
ag8
ag12
ag8
ag16
ag12
ag8
ag16
ag16
ag12
ag12
ag8
ag8
ag12
ag16
ag16
ag16
ag12
ag8
ag8
ag12
ag16
ag12
ag8
ag12
ag8
ag16
ag12
ag12
ag8
ag16
ag16
ag16
ag12
ag12
ag8
ag12
ag12
ag8
ag8
ag12
ag16
ag8
ag16
ag12
ag8
ag8
ag12
ag12
ag12
ag8
ag12
ag12
ag16
ag8
ag8
ag12
ag12
ag8
ag8
ag12
ag8
ag16
ag8
ag16
ag12
ag12
ag8
ag16
ag12
ag16
ag16
ag8
ag8
ag8
ag16
ag8
ag12
ag8
ag8
ag8
ag16
ag8
ag16
ag12
ag16
ag8
ag12
ag16
ag8
ag8
ag12
ag16
ag8
ag8
ag12
ag16
ag12
ag16
ag16
ag12
ag12
ag8
ag8
ag16
ag8
ag8
ag16
ag12
ag8
ag16
ag12
ag16
ag8
ag12
ag8
ag16
ag16
ag8
ag12
ag12
ag12
ag12
ag8
ag8
ag8
ag16
ag16
ag12
ag8
ag12
ag16
ag12
ag16
ag12
ag8
ag16
ag8
ag8
ag16
ag8
ag8
ag8
ag8
ag6
ag12
ag8
ag16
ag12
ag16
ag8
ag12
ag12
ag8
ag16
ag12
ag16
ag16
ag8
ag12
ag8
ag12
ag12
ag16
ag12
ag16
ag12
ag8
ag8
ag12
ag16
ag12
ag12
ag12
ag8
ag12
ag12
ag12
ag12
ag16
ag16
ag8
ag8
ag8
ag12
ag12
ag12
ag8
ag12
ag8
ag8
ag8
ag16
ag8
ag12
ag12
ag16
ag12
ag16
ag12
ag12
ag12
ag12
ag12
ag8
ag12
ag12
ag12
ag8
ag16
ag16
ag8
ag16
ag12
ag8
ag12
ag8
ag16
ag8
ag12
ag12
ag12
ag12
ag12
ag16
ag8
ag16
ag12
ag12
ag8
ag12
ag16
ag12
ag16
ag12
ag16
ag12
ag8
ag16
ag12
ag12
ag16
ag12
ag12
ag12
ag12
ag8
ag12
ag12
ag8
ag16
ag12
ag8
ag16
ag8
ag8
ag16
ag12
ag16
ag8
ag12
ag16
ag16
ag8
ag12
ag12
ag12
ag12
ag8
ag16
ag8
ag8
ag16
ag12
ag8
ag8
ag16
ag12
ag8
ag16
ag16
ag12
ag16
ag16
ag8
ag16
ag12
ag16
ag16
ag12
ag12
ag16
ag16
ag16
ag8
ag2
ag2
ag2
ag2
ag2
ag2
ag2
ag2
ag2
ag2
ag2
ag2
ag2
ag2
ag2
ag2
ag2
ag2
ag2
ag2
ag2
ag2
ag2
ag2
ag2
ag2
ag2
ag2
ag2
ag2
ag2
ag2
ag2
ag2
ag2
ag2
ag2
ag2
ag2
ag2
ag2
ag2
ag2
ag2
ag2
ag2
ag2
ag2
ag2
ag2
ag2
ag2
ag2
ag2
ag2
ag2
ag2
ag2
ag2
ag2
ag2
ag2
ag2
ag2
ag2
ag2
ag2
ag2
ag2
ag2
ag2
ag2
ag2
ag2
ag2
ag2
ag2
ag2
ag2
ag2
ag2
ag2
ag2
ag2
ag2
ag2
ag2
ag2
ag2
ag2
ag2
ag2
ag2
ag2
ag2
ag2
ag2
ag2
ag2
ag2
ag2
ag2
ag2
ag2
ag2
ag2
ag2
ag2
ag2
ag2
ag2
ag2
ag2
ag2
ag2
ag2
ag2
ag2
ag2
ag2
ag2
ag2
ag2
ag2
ag2
ag2
ag2
ag2
ag2
ag2
ag2
ag2
ag2
ag2
ag2
ag2
ag2
ag2
ag2
ag2
ag2
ag2
ag2
ag2
ag2
ag2
ag2
ag2
ag2
ag2
ag2
ag2
ag2
ag2
ag2
ag2
ag2
ag2
ag2
ag2
ag2
ag2
ag2
ag2
ag2
ag2
ag2
ag2
ag2
ag2
ag2
ag2
ag2
ag2
ag2
ag2
ag2
ag2
ag2
ag2
ag2
ag2
ag2
ag2
ag2
ag2
ag2
ag2
ag2
ag2
ag2
ag2
ag2
ag2
ag2
ag2
ag2
ag2
ag2
ag2
ag2
ag2
ag2
ag2
ag2
ag16
ag2
ag2
ag2
ag2
ag2
ag2
ag2
ag2
ag2
ag2
ag2
ag2
ag2
ag2
ag2
ag2
ag2
ag2
ag2
ag2
ag2
ag2
ag2
ag2
ag2
ag2
ag2
ag2
ag2
ag2
ag2
ag2
ag2
ag2
ag2
ag2
ag2
ag2
ag2
ag2
ag2
ag2
ag2
ag2
ag2
ag2
ag2
ag2
ag2
ag2
ag2
ag2
ag2
ag2
ag2
ag2
ag2
ag2
ag2
ag2
ag2
ag2
ag2
ag2
ag2
ag2
ag2
ag2
ag2
ag2
ag2
ag2
ag2
ag2
ag2
ag2
ag2
ag2
ag2
ag2
ag2
ag2
ag2
ag2
ag2
ag2
ag2
ag2
ag2
ag2
ag2
ag2
ag2
ag2
ag2
ag2
ag2
ag2
ag2
ag2
ag2
ag2
ag2
ag2
ag2
ag2
ag2
ag2
ag2
ag2
ag2
ag2
ag2
ag2
ag2
ag2
ag2
ag2
ag2
ag2
ag2
ag2
ag2
ag2
ag2
ag2
ag2
ag2
ag2
ag2
ag2
ag2
ag2
ag2
ag2
ag2
ag2
ag2
ag2
ag2
ag2
ag2
ag2
ag2
ag2
ag2
ag2
ag2
ag2
ag2
ag2
ag2
ag2
ag2
ag2
ag2
ag2
ag2
ag2
ag2
ag2
ag2
ag2
ag2
ag2
ag2
ag2
ag2
ag2
ag2
ag2
ag2
ag2
ag2
ag2
ag2
ag2
ag2
ag2
ag2
ag2
ag2
ag2
ag2
ag2
ag2
ag2
ag2
ag2
ag2
ag2
ag2
ag2
ag2
ag2
ag2
ag2
ag2
ag2
ag2
ag2
ag2
ag2
ag2
ag2
ag2
ag2
ag2
ag2
ag2
ag2
ag2
ag2
ag2
ag2
ag2
ag2
ag2
ag2
ag16
ag2
ag2
ag2
ag2
ag2
ag2
ag2
ag2
ag2
ag2
ag2
ag2
ag2
ag2
ag2
ag2
ag2
ag2
ag2
ag2
ag2
ag2
ag2
ag2
ag2
ag2
ag2
ag2
ag2
ag2
ag2
ag2
ag2
ag2
ag2
ag2
ag2
ag2
ag2
ag2
ag2
ag2
ag2
ag2
ag2
ag2
ag2
ag2
ag2
ag2
ag2
ag16
ag2
ag2
ag2
ag2
ag2
ag2
ag2
ag2
ag2
ag2
ag2
ag2
ag2
ag2
ag2
ag2
ag2
ag2
ag2
ag2
ag2
ag2
ag10
ag14
ag6
ag14
ag14
ag6
ag10
ag10
ag10
ag6
ag4
ag4
ag10
ag6
ag6
ag14
ag6
ag14
ag6
ag6
ag10
ag10
ag6
ag6
ag10
ag14
ag10
ag14
ag10
ag6
ag10
ag14
ag14
ag4
ag6
ag10
ag4
ag14
ag10
ag4
ag4
ag14
ag10
ag10
ag6
ag6
ag10
ag6
ag10
ag4
ag4
ag6
ag6
ag6
ag6
ag6
ag6
ag6
ag6
ag14
ag4
ag4
ag6
ag6
ag4
ag14
ag10
ag10
ag14
ag6
ag14
ag6
ag6
ag14
ag6
ag4
ag10
ag10
ag6
ag6
ag10
ag4
ag4
ag6
ag10
ag4
ag14
ag14
ag10
ag4
ag14
ag4
ag10
ag4
ag14
ag4
ag14
ag4
ag6
ag6
ag4
ag4
ag10
ag6
ag14
ag14
ag4
ag10
ag14
ag10
ag14
ag4
ag14
ag10
ag14
ag10
ag10
ag6
ag4
ag10
ag6
ag6
ag10
ag4
ag4
ag4
ag10
ag4
ag6
ag10
ag14
ag10
ag10
ag6
ag14
ag6
ag10
ag6
ag6
ag14
ag14
ag14
ag14
ag14
ag4
ag6
ag4
ag2
ag6
ag4
ag6
ag4
ag14
ag6
ag10
ag10
ag14
ag6
ag6
ag10
ag10
ag10
ag10
ag10
ag6
ag6
ag10
ag4
ag10
ag6
ag4
ag6
ag10
ag4
ag6
ag6
ag14
ag10
ag4
ag10
ag6
ag10
ag10
ag14
ag4
ag4
ag4
ag10
ag6
ag10
ag6
ag4
ag4
ag14
ag6
ag10
ag10
ag4
ag6
ag14
ag6
ag14
ag14
ag10
ag10
ag14
ag4
ag4
ag4
ag10
ag4
ag6
ag14
ag6
ag6
ag14
ag4
ag4
ag6
ag4
ag14
ag4
ag4
ag6
ag6
ag6
ag4
ag10
ag6
ag10
ag6
ag4
ag10
ag10
ag10
ag14
ag14
ag10
ag4
ag6
ag10
ag10
ag14
ag10
ag14
ag6
ag6
ag10
ag10
ag14
ag6
ag10
ag6
ag14
ag14
ag10
ag6
ag6
ag4
ag14
ag10
ag4
ag6
ag6
ag14
ag10
ag4
ag6
ag6
ag14
ag6
ag4
ag14
ag10
ag10
ag6
ag6
ag4
ag6
ag14
ag10
ag4
ag4
ag14
ag4
ag10
ag6
ag4
ag6
ag10
ag10
ag14
ag4
ag14
ag4
ag6
ag10
ag10
ag6
ag14
ag10
ag4
ag14
ag14
ag6
ag6
ag10
ag6
ag6
ag10
ag6
ag6
ag14
ag10
ag14
ag10
ag6
ag14
ag4
ag10
ag6
ag10
ag6
ag4
ag14
ag14
ag6
ag6
ag10
ag4
ag4
ag6
ag4
ag10
ag6
ag14
ag10
ag10
ag10
ag10
ag10
ag14
ag4
ag10
ag10
ag6
ag14
ag10
ag6
ag6
ag14
ag10
ag10
ag6
ag10
ag10
ag10
ag4
ag14
ag14
ag10
ag6
ag10
ag6
ag10
ag10
ag14
ag10
ag6
ag6
ag6
ag4
ag6
ag4
ag10
ag6
ag10
ag6
ag10
ag6
ag10
ag4
ag6
ag10
ag10
ag10
ag4
ag10
ag10
ag10
ag6
ag6
ag10
ag6
ag4
ag4
ag14
ag10
ag10
ag10
ag6
ag4
ag6
ag10
ag4
ag10
ag4
ag14
ag4
ag4
ag4
ag14
ag10
ag6
ag10
ag6
ag10
ag10
ag6
ag10
ag4
ag6
ag6
ag6
ag4
ag14
ag6
ag4
ag6
ag6
ag4
ag6
ag10
ag10
ag10
ag10
ag4
ag6
ag6
ag10
ag10
ag4
ag10
ag10
ag4
ag6
ag14
ag14
ag6
ag6
ag4
ag14
ag6
ag6
ag6
ag6
ag10
ag6
ag6
ag6
ag4
ag10
ag10
ag10
ag10
ag14
ag4
ag10
ag6
ag10
ag6
ag6
ag10
ag6
ag6
ag6
ag10
ag6
ag14
ag4
ag6
ag4
ag6
ag4
ag6
ag14
ag4
ag4
ag14
ag6
ag6
ag10
ag14
ag14
ag4
ag6
ag10
ag14
ag14
ag4
asI9
(lp17
g12
ag12
ag12
ag12
ag12
ag12
ag12
ag12
ag12
ag12
ag12
ag12
ag12
ag12
ag12
ag12
ag12
ag12
ag12
ag12
ag12
ag12
ag12
ag12
ag12
ag12
ag12
ag12
ag12
ag12
ag12
ag12
ag12
ag12
ag12
ag12
ag12
ag12
ag12
ag12
ag12
ag12
ag12
ag12
ag8
ag12
ag12
ag12
ag12
ag12
ag12
ag12
ag12
ag12
ag12
ag12
ag12
ag12
ag12
ag12
ag12
ag12
ag12
ag12
ag12
ag12
ag12
ag12
ag12
ag12
ag12
ag12
ag12
ag12
ag12
ag12
ag12
ag12
ag12
ag12
ag12
ag12
ag12
ag12
ag12
ag12
ag12
ag12
ag12
ag12
ag12
ag8
ag12
ag12
ag12
ag12
ag12
ag12
ag12
ag12
ag12
ag12
ag12
ag12
ag12
ag12
ag12
ag12
ag12
ag12
ag12
ag12
ag12
ag12
ag12
ag12
ag12
ag12
ag12
ag12
ag12
ag12
ag12
ag12
ag12
ag12
ag12
ag12
ag12
ag12
ag12
ag12
ag12
ag12
ag12
ag12
ag8
ag12
ag12
ag12
ag12
ag12
ag12
ag12
ag12
ag12
ag12
ag12
ag12
ag12
ag12
ag12
ag12
ag12
ag12
ag12
ag12
ag12
ag12
ag12
ag12
ag12
ag12
ag12
ag12
ag12
ag12
ag12
ag12
ag12
ag12
ag12
ag12
ag12
ag12
ag12
ag12
ag12
ag12
ag12
ag12
ag12
ag12
ag12
ag12
ag12
ag12
ag12
ag12
ag12
ag12
ag12
ag12
ag12
ag12
ag12
ag12
ag12
ag12
ag12
ag12
ag12
ag12
ag12
ag12
ag12
ag12
ag12
ag12
ag12
ag12
ag12
ag12
ag12
ag12
ag12
ag12
ag12
ag12
ag12
ag12
ag12
ag12
ag12
ag12
ag12
ag12
ag12
ag12
ag12
ag12
ag12
ag12
ag12
ag12
ag12
ag12
ag12
ag12
ag12
ag12
ag12
ag12
ag12
ag12
ag12
ag12
ag12
ag12
ag12
ag12
ag12
ag12
ag12
ag12
ag12
ag12
ag12
ag12
ag12
ag12
ag12
ag12
ag12
ag12
ag12
ag12
ag12
ag12
ag12
ag12
ag12
ag12
ag12
ag12
ag12
ag12
ag12
ag12
ag12
ag12
ag12
ag12
ag12
ag12
ag12
ag12
ag12
ag12
ag12
ag12
ag12
ag12
ag12
ag12
ag12
ag12
ag12
ag12
ag12
ag12
ag12
ag12
ag12
ag12
ag12
ag12
ag12
ag12
ag12
ag12
ag12
ag12
ag12
ag12
ag12
ag12
ag12
ag12
ag12
ag12
ag12
ag12
ag12
ag12
ag12
ag12
ag12
ag12
ag12
ag12
ag12
ag12
ag12
ag12
ag12
ag12
ag12
ag12
ag12
ag12
ag12
ag12
ag12
ag12
ag12
ag12
ag12
ag12
ag16
ag12
ag12
ag12
ag12
ag12
ag12
ag12
ag12
ag12
ag12
ag12
ag12
ag12
ag12
ag12
ag12
ag12
ag12
ag12
ag12
ag12
ag12
ag12
ag12
ag12
ag12
ag12
ag12
ag12
ag12
ag12
ag12
ag12
ag12
ag12
ag12
ag12
ag12
ag12
ag12
ag12
ag12
ag12
ag12
ag12
ag12
ag12
ag12
ag12
ag12
ag12
ag12
ag12
ag12
ag12
ag12
ag12
ag12
ag12
ag12
ag12
ag12
ag12
ag12
ag12
ag12
ag12
ag12
ag12
ag12
ag12
ag12
ag12
ag12
ag12
ag12
ag12
ag12
ag12
ag12
ag12
ag12
ag12
ag12
ag12
ag12
ag12
ag12
ag12
ag12
ag12
ag12
ag12
ag12
ag12
ag12
ag12
ag12
ag12
ag12
ag12
ag12
ag12
ag12
ag12
ag12
ag12
ag12
ag12
ag12
ag12
ag12
ag12
ag12
ag12
ag12
ag12
ag12
ag12
ag12
ag12
ag12
ag12
ag12
ag12
ag12
ag12
ag12
ag12
ag12
ag12
ag12
ag12
ag12
ag12
ag12
ag12
ag12
ag12
ag12
ag12
ag12
ag12
ag12
ag12
ag12
ag12
ag12
ag12
ag12
ag2
ag2
ag2
ag2
ag8
ag8
ag8
aS'#d9d9d9'
p18
ag6
ag2
ag2
ag2
ag8
ag6
ag18
ag2
ag8
ag8
ag6
ag2
ag18
ag6
ag2
ag8
ag2
ag2
ag6
ag8
ag2
ag18
ag6
ag2
ag18
ag18
ag6
ag2
ag8
ag6
ag2
ag2
ag2
ag18
ag2
ag6
ag6
ag2
ag18
ag18
ag2
ag18
ag18
ag8
ag2
ag2
ag2
ag18
ag6
ag2
ag6
ag2
ag2
ag8
ag8
ag8
ag8
ag18
ag18
ag2
ag6
ag2
ag18
ag2
ag8
ag18
ag8
ag2
ag8
ag18
ag18
ag18
ag2
ag6
ag6
ag2
ag18
ag2
ag8
ag6
ag18
ag18
ag18
ag8
ag6
ag18
ag2
ag6
ag6
ag6
ag2
ag8
ag2
ag2
ag2
ag2
ag8
ag8
ag2
ag6
ag2
ag6
ag18
ag6
ag2
ag8
ag2
ag18
ag6
ag2
ag8
ag18
ag6
ag6
ag8
ag8
ag18
ag6
ag6
ag18
ag2
ag8
ag6
ag18
ag2
ag6
ag8
ag2
ag6
ag18
ag2
ag8
ag2
ag2
ag18
ag6
ag6
ag18
ag2
ag2
ag6
ag8
ag6
ag18
ag6
ag6
ag8
ag8
ag18
ag2
ag6
ag6
ag2
ag18
ag8
ag18
ag18
ag18
ag8
ag8
ag8
ag2
ag18
ag18
ag6
ag18
ag6
ag8
ag6
ag2
ag6
ag8
ag8
ag6
ag6
ag8
ag18
ag6
ag18
ag2
ag2
ag6
ag18
ag18
ag8
ag2
ag6
ag8
ag2
ag18
ag18
ag6
ag6
ag6
ag2
ag2
ag6
ag8
ag6
ag2
ag8
ag8
ag8
ag8
ag18
ag18
ag6
ag18
ag8
ag2
ag2
ag8
ag8
ag8
ag8
ag6
ag2
ag18
ag8
ag6
ag2
ag8
ag6
ag2
ag2
ag6
ag8
ag2
ag18
ag8
ag6
ag2
ag2
ag8
ag18
ag2
ag8
ag6
ag6
ag6
ag18
ag6
ag8
ag6
ag6
ag18
ag2
ag6
ag18
ag2
ag2
ag6
ag2
ag18
ag2
ag2
ag6
ag8
ag8
ag2
ag8
ag2
ag8
ag2
ag8
ag6
ag2
ag2
ag2
ag6
ag18
ag6
ag2
ag6
ag2
ag6
ag6
ag2
ag18
ag6
ag8
ag2
ag6
ag6
ag2
ag2
ag6
ag8
ag8
ag6
ag18
ag8
ag18
ag8
ag8
ag2
ag8
ag6
ag18
ag8
ag6
ag2
ag6
ag2
ag18
ag6
ag2
ag8
ag18
ag6
ag8
ag6
ag18
ag2
ag2
ag18
ag8
ag6
ag6
ag6
ag6
ag18
ag18
ag2
ag2
ag18
ag6
ag6
ag2
ag18
ag8
ag6
ag18
ag18
ag18
ag6
ag18
ag8
ag2
ag18
ag18
ag18
ag6
ag6
ag2
ag8
ag8
ag6
ag18
ag18
ag6
ag6
ag8
ag18
ag18
ag8
ag8
ag8
ag18
ag6
ag6
ag2
ag6
ag2
ag6
ag18
ag2
ag6
ag6
ag6
ag6
ag18
ag6
ag18
ag2
ag2
ag2
ag2
ag8
ag8
ag18
ag2
ag2
ag8
ag2
ag2
ag6
ag18
ag8
ag6
ag6
ag2
ag18
ag2
ag6
ag18
ag6
ag6
ag18
ag18
ag18
ag8
ag8
ag6
ag2
ag8
ag2
ag18
ag6
ag8
ag2
ag18
ag2
ag18
ag6
ag6
ag18
ag8
ag2
ag2
ag18
ag18
ag2
ag6
ag2
ag8
ag18
ag6
ag6
ag8
ag18
ag8
ag18
ag6
ag8
ag6
ag6
ag18
ag2
ag8
ag6
ag8
ag8
ag2
ag8
ag6
ag18
ag6
ag6
ag6
ag18
ag8
ag6
ag2
ag8
ag6
ag6
ag8
ag18
ag8
ag8
ag2
ag18
ag2
ag6
ag8
ag2
ag18
ag18
ag8
ag6
ag2
ag2
ag18
ag6
ag6
ag2
ag18
ag6
ag6
ag2
ag6
ag18
ag6
ag8
ag6
ag8
ag6
ag2
ag6
ag18
ag8
ag4
ag14
ag16
ag14
ag4
ag14
ag4
ag10
ag4
ag16
ag10
ag10
ag4
ag16
ag16
ag14
ag16
ag14
ag16
ag16
ag4
ag4
ag16
ag16
ag10
ag14
ag4
ag14
ag4
ag16
ag4
ag14
ag14
ag10
ag16
ag4
ag10
ag14
ag4
ag16
ag10
ag14
ag4
ag4
ag16
ag16
ag10
ag14
ag4
ag10
ag10
ag16
ag16
ag14
ag14
ag14
ag16
ag16
ag16
ag14
ag10
ag10
ag16
ag16
ag10
ag14
ag10
ag4
ag4
ag16
ag14
ag16
ag16
ag14
ag16
ag10
ag4
ag4
ag14
ag16
ag4
ag10
ag10
ag16
ag4
ag10
ag14
ag14
ag4
ag10
ag14
ag10
ag4
ag10
ag14
ag10
ag4
ag10
ag16
ag16
ag10
ag10
ag10
ag14
ag14
ag14
ag10
ag10
ag4
ag10
ag14
ag10
ag14
ag4
ag14
ag4
ag4
ag16
ag16
ag4
ag16
ag16
ag4
ag10
ag10
ag10
ag10
ag10
ag16
ag4
ag14
ag4
ag4
ag16
ag14
ag16
ag4
ag16
ag16
ag14
ag14
ag14
ag14
ag14
ag10
ag16
ag10
ag2
ag16
ag10
ag16
ag10
ag14
ag16
ag4
ag4
ag14
ag16
ag16
ag4
ag4
ag4
ag10
ag4
ag14
ag16
ag10
ag10
ag4
ag16
ag10
ag16
ag4
ag10
ag16
ag16
ag14
ag4
ag10
ag4
ag16
ag10
ag4
ag14
ag16
ag10
ag10
ag4
ag16
ag4
ag14
ag16
ag10
ag4
ag16
ag4
ag4
ag10
ag14
ag14
ag16
ag4
ag14
ag4
ag4
ag14
ag16
ag10
ag10
ag10
ag10
ag14
ag4
ag16
ag16
ag14
ag10
ag10
ag16
ag10
ag14
ag10
ag10
ag16
ag16
ag16
ag10
ag4
ag16
ag4
ag16
ag10
ag4
ag4
ag4
ag14
ag4
ag4
ag10
ag16
ag4
ag4
ag4
ag4
ag4
ag16
ag16
ag10
ag4
ag4
ag16
ag10
ag16
ag14
ag14
ag4
ag16
ag16
ag10
ag14
ag4
ag10
ag16
ag16
ag14
ag4
ag16
ag16
ag16
ag4
ag16
ag10
ag14
ag4
ag4
ag16
ag16
ag10
ag16
ag14
ag4
ag10
ag10
ag14
ag10
ag4
ag16
ag10
ag14
ag4
ag4
ag4
ag10
ag14
ag10
ag16
ag4
ag4
ag16
ag14
ag4
ag10
ag14
ag14
ag16
ag16
ag4
ag16
ag16
ag4
ag16
ag16
ag14
ag4
ag14
ag4
ag16
ag14
ag10
ag4
ag16
ag4
ag16
ag10
ag14
ag14
ag16
ag16
ag4
ag10
ag10
ag16
ag10
ag4
ag16
ag14
ag4
ag4
ag4
ag4
ag4
ag14
ag10
ag10
ag10
ag16
ag14
ag10
ag16
ag16
ag14
ag4
ag4
ag16
ag4
ag4
ag4
ag10
ag4
ag14
ag4
ag16
ag4
ag16
ag4
ag4
ag4
ag4
ag16
ag16
ag16
ag10
ag16
ag10
ag4
ag14
ag4
ag16
ag4
ag16
ag4
ag10
ag14
ag4
ag4
ag4
ag16
ag4
ag4
ag4
ag16
ag14
ag4
ag14
ag10
ag10
ag4
ag4
ag4
ag4
ag14
ag10
ag14
ag4
ag10
ag4
ag10
ag14
ag10
ag10
ag10
ag14
ag10
ag14
ag10
ag14
ag10
ag4
ag16
ag4
ag10
ag16
ag16
ag16
ag10
ag14
ag16
ag10
ag16
ag16
ag10
ag16
ag4
ag4
ag4
ag4
ag10
ag16
ag16
ag10
ag4
ag10
ag4
ag4
ag10
ag14
ag14
ag14
ag16
ag16
ag10
ag14
ag16
ag16
ag16
ag16
ag4
ag16
ag16
ag16
ag10
ag4
ag10
ag4
ag4
ag14
ag10
ag4
ag16
ag4
ag16
ag16
ag4
ag16
ag14
ag16
ag4
ag16
ag14
ag10
ag16
ag10
ag16
ag10
ag16
ag14
ag10
ag16
ag14
ag16
ag16
ag4
ag14
ag14
ag10
ag14
ag4
ag4
ag14
ag10
asI10
(lp19
g16
ag10
ag16
ag16
ag16
ag8
ag10
ag8
ag10
ag10
ag8
ag16
ag16
ag16
ag16
ag10
ag10
ag10
ag8
ag8
ag16
ag10
ag8
ag8
ag16
ag8
ag8
ag16
ag8
ag10
ag16
ag8
ag10
ag16
ag8
ag16
ag8
ag16
ag10
ag8
ag10
ag8
ag16
ag8
ag10
ag16
ag8
ag8
ag16
ag10
ag16
ag8
ag10
ag8
ag8
ag8
ag10
ag10
ag10
ag16
ag8
ag8
ag10
ag8
ag10
ag8
ag16
ag16
ag10
ag10
ag10
ag16
ag8
ag8
ag16
ag10
ag10
ag16
ag16
ag16
ag16
ag8
ag8
ag8
ag10
ag8
ag8
ag16
ag16
ag8
ag10
ag10
ag16
ag10
ag8
ag8
ag16
ag16
ag8
ag16
ag16
ag16
ag8
ag10
ag8
ag10
ag8
ag8
ag16
ag8
ag16
ag8
ag10
ag10
ag16
ag8
ag10
ag8
ag16
ag16
ag8
ag10
ag16
ag16
ag16
ag16
ag8
ag16
ag16
ag8
ag8
ag10
ag8
ag8
ag16
ag16
ag10
ag16
ag8
ag16
ag8
ag10
ag16
ag10
ag8
ag10
ag10
ag8
ag10
ag10
ag10
ag10
ag8
ag16
ag16
ag10
ag10
ag16
ag8
ag16
ag10
ag10
ag8
ag8
ag8
ag16
ag8
ag16
ag16
ag10
ag16
ag10
ag8
ag16
ag8
ag10
ag10
ag10
ag16
ag10
ag16
ag16
ag10
ag10
ag8
ag8
ag8
ag10
ag8
ag10
ag10
ag10
ag8
ag10
ag8
ag8
ag8
ag16
ag16
ag16
ag10
ag10
ag10
ag10
ag16
ag16
ag8
ag16
ag8
ag10
ag16
ag8
ag10
ag10
ag16
ag16
ag8
ag8
ag16
ag10
ag10
ag10
ag16
ag8
ag8
ag16
ag10
ag16
ag8
ag16
ag8
ag10
ag16
ag16
ag8
ag10
ag10
ag10
ag16
ag10
ag8
ag16
ag16
ag8
ag8
ag16
ag10
ag8
ag10
ag16
ag8
ag8
ag16
ag16
ag16
ag8
ag16
ag16
ag10
ag8
ag8
ag16
ag16
ag8
ag8
ag16
ag8
ag10
ag8
ag10
ag16
ag16
ag8
ag10
ag16
ag10
ag10
ag8
ag8
ag8
ag10
ag8
ag16
ag8
ag8
ag8
ag10
ag8
ag10
ag16
ag10
ag8
ag16
ag10
ag8
ag8
ag16
ag10
ag8
ag8
ag16
ag10
ag16
ag10
ag10
ag16
ag16
ag8
ag8
ag10
ag8
ag8
ag10
ag16
ag8
ag10
ag16
ag10
ag8
ag16
ag8
ag10
ag10
ag8
ag16
ag16
ag16
ag16
ag8
ag8
ag8
ag10
ag10
ag16
ag8
ag16
ag10
ag16
ag10
ag16
ag8
ag10
ag8
ag8
ag10
ag8
ag8
ag8
ag8
ag14
ag16
ag8
ag10
ag16
ag10
ag8
ag16
ag16
ag8
ag10
ag16
ag10
ag10
ag8
ag16
ag8
ag16
ag16
ag10
ag16
ag10
ag16
ag8
ag8
ag16
ag10
ag16
ag16
ag16
ag8
ag16
ag16
ag16
ag16
ag10
ag10
ag8
ag8
ag8
ag16
ag16
ag16
ag8
ag16
ag8
ag8
ag8
ag10
ag8
ag16
ag16
ag10
ag16
ag10
ag16
ag16
ag16
ag16
ag16
ag8
ag16
ag16
ag16
ag8
ag10
ag10
ag8
ag10
ag16
ag8
ag16
ag8
ag10
ag8
ag16
ag16
ag16
ag16
ag16
ag10
ag8
ag10
ag16
ag16
ag8
ag16
ag10
ag16
ag10
ag16
ag10
ag16
ag8
ag10
ag16
ag16
ag10
ag16
ag16
ag16
ag16
ag8
ag16
ag16
ag8
ag10
ag16
ag8
ag10
ag8
ag8
ag10
ag16
ag10
ag8
ag16
ag10
ag10
ag8
ag16
ag16
ag16
ag16
ag8
ag10
ag8
ag8
ag10
ag16
ag8
ag8
ag10
ag16
ag8
ag10
ag10
ag16
ag10
ag10
ag8
ag10
ag16
ag10
ag10
ag16
ag16
ag10
ag10
ag10
ag8
aS'#bc80bd'
p20
ag20
ag2
ag2
ag20
ag20
ag20
ag2
ag18
ag20
ag2
ag20
ag20
ag18
ag2
ag2
ag20
ag20
ag18
ag20
ag2
ag18
ag20
ag20
ag2
ag20
ag18
ag20
ag2
ag2
ag20
ag2
ag2
ag2
ag18
ag2
ag20
ag18
ag20
ag2
ag2
ag2
ag2
ag18
ag18
ag2
ag18
ag2
ag20
ag2
ag2
ag20
ag20
ag2
ag20
ag2
ag18
ag20
ag18
ag2
ag20
ag20
ag20
ag20
ag20
ag2
ag2
ag20
ag18
ag20
ag2
ag2
ag20
ag2
ag20
ag2
ag20
ag2
ag2
ag2
ag2
ag18
ag18
ag20
ag2
ag2
ag20
ag18
ag2
ag18
ag2
ag20
ag18
ag2
ag2
ag18
ag18
ag18
ag20
ag20
ag20
ag2
ag2
ag2
ag20
ag20
ag2
ag18
ag20
ag18
ag2
ag18
ag2
ag20
ag20
ag2
ag18
ag2
ag20
ag2
ag18
ag18
ag20
ag20
ag18
ag18
ag18
ag18
ag2
ag20
ag18
ag2
ag2
ag18
ag20
ag2
ag18
ag2
ag20
ag20
ag2
ag2
ag2
ag18
ag18
ag18
ag2
ag2
ag18
ag20
ag18
ag2
ag18
ag18
ag20
ag20
ag18
ag20
ag18
ag18
ag20
ag2
ag20
ag2
ag2
ag2
ag20
ag20
ag20
ag2
ag2
ag2
ag18
ag18
ag18
ag20
ag18
ag2
ag20
ag20
ag20
ag18
ag18
ag18
ag2
ag18
ag2
ag2
ag20
ag18
ag2
ag2
ag20
ag20
ag18
ag20
ag20
ag2
ag18
ag18
ag18
ag18
ag2
ag2
ag18
ag10
ag18
ag2
ag20
ag20
ag20
ag20
ag2
ag2
ag18
ag2
ag20
ag2
ag2
ag20
ag20
ag20
ag20
ag18
ag2
ag2
ag20
ag18
ag2
ag20
ag18
ag20
ag2
ag18
ag20
ag20
ag2
ag20
ag18
ag2
ag2
ag20
ag2
ag20
ag20
ag18
ag18
ag18
ag2
ag18
ag20
ag18
ag18
ag2
ag2
ag18
ag2
ag2
ag20
ag18
ag20
ag2
ag2
ag20
ag18
ag20
ag20
ag2
ag20
ag2
ag20
ag20
ag20
ag18
ag20
ag2
ag20
ag18
ag2
ag18
ag2
ag18
ag20
ag18
ag18
ag20
ag2
ag18
ag20
ag2
ag18
ag18
ag2
ag20
ag18
ag20
ag20
ag18
ag2
ag20
ag2
ag20
ag20
ag2
ag20
ag18
ag2
ag20
ag18
ag20
ag18
ag2
ag2
ag18
ag2
ag20
ag2
ag18
ag20
ag18
ag2
ag20
ag20
ag2
ag20
ag18
ag18
ag18
ag18
ag2
ag18
ag20
ag2
ag2
ag20
ag18
ag20
ag2
ag20
ag18
ag2
ag2
ag2
ag18
ag2
ag20
ag20
ag2
ag2
ag18
ag18
ag18
ag2
ag20
ag20
ag18
ag2
ag2
ag18
ag18
ag20
ag18
ag2
ag20
ag20
ag18
ag2
ag18
ag18
ag2
ag18
ag2
ag18
ag18
ag2
ag20
ag18
ag18
ag20
ag2
ag20
ag2
ag20
ag20
ag20
ag20
ag20
ag20
ag2
ag20
ag2
ag20
ag2
ag20
ag18
ag2
ag20
ag18
ag18
ag20
ag2
ag20
ag18
ag2
ag18
ag18
ag2
ag2
ag2
ag20
ag20
ag18
ag2
ag20
ag20
ag18
ag18
ag20
ag20
ag18
ag20
ag18
ag18
ag18
ag18
ag20
ag2
ag2
ag2
ag2
ag2
ag18
ag20
ag20
ag2
ag18
ag18
ag20
ag2
ag20
ag2
ag18
ag20
ag18
ag18
ag2
ag20
ag20
ag18
ag20
ag20
ag2
ag20
ag18
ag2
ag18
ag20
ag18
ag18
ag20
ag18
ag2
ag20
ag18
ag18
ag20
ag2
ag20
ag20
ag20
ag2
ag20
ag18
ag20
ag2
ag2
ag2
ag10
ag18
ag20
ag2
ag18
ag18
ag18
ag2
ag2
ag18
ag18
ag2
ag18
ag2
ag18
ag20
ag18
ag20
ag20
ag20
ag18
ag2
ag20
ag6
ag4
ag12
ag4
ag4
ag12
ag6
ag6
ag4
ag12
ag14
ag14
ag6
ag12
ag14
ag4
ag14
ag4
ag14
ag12
ag4
ag4
ag12
ag14
ag6
ag12
ag6
ag4
ag4
ag12
ag6
ag12
ag12
ag6
ag12
ag4
ag6
ag4
ag6
ag14
ag14
ag12
ag6
ag4
ag12
ag14
ag6
ag12
ag6
ag6
ag14
ag14
ag12
ag12
ag12
ag12
ag12
ag12
ag14
ag4
ag14
ag14
ag12
ag14
ag14
ag12
ag6
ag6
ag4
ag14
ag12
ag12
ag12
ag4
ag14
ag6
ag6
ag4
ag12
ag12
ag6
ag14
ag14
ag12
ag4
ag14
ag12
ag4
ag6
ag6
ag12
ag14
ag6
ag6
ag4
ag6
ag4
ag14
ag14
ag14
ag14
ag14
ag6
ag12
ag4
ag4
ag6
ag6
ag4
ag6
ag4
ag14
ag4
ag4
ag12
ag6
ag6
ag14
ag14
ag4
ag14
ag12
ag4
ag6
ag14
ag6
ag6
ag14
ag12
ag4
ag4
ag6
ag4
ag12
ag4
ag12
ag4
ag14
ag12
ag4
ag12
ag4
ag4
ag12
ag14
ag12
ag6
ag20
ag14
ag14
ag14
ag14
ag4
ag12
ag6
ag4
ag12
ag12
ag14
ag6
ag6
ag6
ag6
ag6
ag12
ag12
ag6
ag6
ag4
ag12
ag6
ag12
ag6
ag6
ag14
ag12
ag12
ag6
ag14
ag4
ag14
ag6
ag6
ag4
ag14
ag6
ag14
ag6
ag12
ag6
ag12
ag14
ag14
ag4
ag12
ag6
ag6
ag14
ag12
ag4
ag14
ag4
ag4
ag4
ag4
ag4
ag14
ag14
ag6
ag6
ag14
ag12
ag4
ag12
ag14
ag12
ag6
ag14
ag12
ag6
ag12
ag14
ag6
ag12
ag14
ag12
ag6
ag4
ag12
ag4
ag12
ag14
ag6
ag4
ag6
ag12
ag4
ag6
ag6
ag12
ag6
ag4
ag4
ag4
ag4
ag12
ag14
ag6
ag4
ag4
ag12
ag6
ag12
ag12
ag4
ag6
ag12
ag12
ag6
ag4
ag6
ag14
ag12
ag12
ag4
ag6
ag14
ag14
ag12
ag4
ag12
ag6
ag12
ag6
ag4
ag12
ag12
ag14
ag12
ag12
ag6
ag6
ag14
ag12
ag6
ag4
ag12
ag14
ag12
ag4
ag6
ag4
ag6
ag12
ag6
ag12
ag6
ag6
ag12
ag4
ag4
ag6
ag12
ag12
ag14
ag14
ag6
ag14
ag12
ag6
ag12
ag12
ag4
ag6
ag12
ag4
ag12
ag4
ag14
ag6
ag12
ag6
ag12
ag14
ag4
ag12
ag12
ag12
ag4
ag14
ag14
ag12
ag14
ag6
ag14
ag4
ag4
ag4
ag6
ag6
ag6
ag4
ag14
ag6
ag6
ag12
ag4
ag6
ag14
ag12
ag12
ag6
ag6
ag12
ag4
ag4
ag4
ag14
ag4
ag12
ag4
ag12
ag6
ag12
ag4
ag6
ag4
ag6
ag12
ag12
ag12
ag14
ag14
ag14
ag6
ag12
ag6
ag14
ag4
ag14
ag6
ag14
ag12
ag4
ag4
ag6
ag14
ag6
ag6
ag6
ag12
ag12
ag6
ag12
ag6
ag6
ag4
ag6
ag6
ag4
ag12
ag14
ag12
ag4
ag14
ag6
ag6
ag12
ag14
ag14
ag6
ag4
ag6
ag12
ag6
ag12
ag6
ag4
ag14
ag6
ag14
ag12
ag14
ag12
ag6
ag12
ag14
ag14
ag12
ag14
ag14
ag12
ag6
ag4
ag4
ag4
ag14
ag14
ag12
ag6
ag4
ag6
ag6
ag6
ag14
ag12
ag12
ag4
ag14
ag12
ag14
ag12
ag12
ag14
ag14
ag12
ag6
ag14
ag12
ag14
ag14
ag6
ag6
ag4
ag6
ag12
ag6
ag4
ag12
ag6
ag12
ag12
ag4
ag14
ag12
ag14
ag6
ag14
ag12
ag6
ag14
ag14
ag14
ag14
ag14
ag12
ag6
ag14
ag4
ag12
ag14
ag4
ag4
ag4
ag6
ag12
ag4
ag4
ag4
ag14
as.