(dp0
I2
(lp1
S'#ffffb3'
p2
ag2
ag2
aS'#8dd3c7'
p3
aS'#bebada'
p4
ag3
ag2
ag2
ag4
ag2
ag3
ag2
ag4
ag4
ag2
ag4
ag2
ag3
ag2
ag3
ag3
ag2
ag3
ag2
ag4
ag2
ag2
ag3
ag2
ag3
asI3
(lp5
g4
ag2
ag2
ag3
ag4
ag3
ag2
ag4
ag4
ag2
ag3
ag2
ag4
ag4
ag2
ag4
ag2
ag3
ag4
ag3
ag3
ag2
ag3
ag4
ag4
ag2
ag2
ag3
ag4
ag3
asI4
(lp6
g4
ag2
ag2
ag3
ag2
ag3
ag2
ag2
ag4
ag2
ag3
ag2
ag4
ag4
ag2
ag4
ag2
ag3
ag2
ag3
ag3
ag2
ag3
ag2
ag4
ag2
ag2
ag3
ag4
ag3
asI5
(lp7
g4
ag2
ag2
ag3
ag2
ag3
ag2
ag2
ag4
ag2
ag3
ag2
ag4
ag4
ag2
ag4
ag2
ag3
ag4
ag3
ag3
ag2
ag3
ag2
ag4
ag2
ag2
ag3
ag4
ag3
asI6
(lp8
g4
ag2
ag2
ag3
ag2
ag3
ag2
ag2
ag4
ag2
ag3
ag2
ag4
ag4
ag2
ag4
ag2
ag3
ag4
ag3
ag3
ag2
ag3
ag2
ag4
ag2
ag2
ag3
ag4
ag3
asI7
(lp9
g4
ag2
ag2
ag3
ag2
ag3
ag2
ag4
ag4
ag4
ag3
ag2
ag4
ag4
ag2
ag4
ag4
ag3
ag4
ag3
ag3
ag2
ag3
ag4
ag4
ag2
ag2
ag3
ag4
ag3
asI8
(lp10
g4
ag2
ag2
ag3
ag2
ag3
ag2
ag4
ag4
ag2
ag3
ag2
ag4
ag4
ag2
ag4
ag4
ag3
ag4
ag3
ag3
ag2
ag3
ag4
ag4
ag2
ag2
ag3
ag4
ag3
asI9
(lp11
g4
ag2
ag2
ag3
ag2
ag3
ag2
ag4
ag4
ag4
ag3
ag2
ag4
ag4
ag2
ag4
ag4
ag3
ag4
ag3
ag3
ag2
ag3
ag4
ag4
ag2
ag2
ag3
ag4
ag3
asI10
(lp12
g4
ag2
ag2
ag3
ag2
ag3
ag2
ag4
ag4
ag4
ag3
ag2
ag4
ag4
ag2
ag4
ag4
ag3
ag4
ag3
ag3
ag2
ag3
ag4
ag4
ag2
ag2
ag3
ag4
ag3
as.